(lp0
cpygame
__color_constructor
p1
(I255
I255
I255
I255
tp2
Rp3
ag1
(I255
I255
I255
I255
tp4
Rp5
ag1
(I255
I255
I255
I255
tp6
Rp7
ag1
(I255
I255
I255
I255
tp8
Rp9
ag1
(I255
I255
I255
I255
tp10
Rp11
ag1
(I255
I255
I255
I255
tp12
Rp13
ag1
(I255
I255
I255
I255
tp14
Rp15
ag1
(I255
I255
I255
I255
tp16
Rp17
ag1
(I255
I255
I255
I255
tp18
Rp19
ag1
(I255
I255
I255
I255
tp20
Rp21
ag1
(I255
I255
I255
I255
tp22
Rp23
ag1
(I255
I255
I255
I255
tp24
Rp25
ag1
(I255
I255
I255
I255
tp26
Rp27
ag1
(I255
I255
I255
I255
tp28
Rp29
ag1
(I255
I255
I255
I255
tp30
Rp31
ag1
(I255
I255
I255
I255
tp32
Rp33
ag1
(I255
I255
I255
I255
tp34
Rp35
ag1
(I255
I255
I255
I255
tp36
Rp37
ag1
(I255
I255
I255
I255
tp38
Rp39
ag1
(I255
I255
I255
I255
tp40
Rp41
ag1
(I255
I255
I255
I255
tp42
Rp43
ag1
(I255
I255
I255
I255
tp44
Rp45
ag1
(I255
I255
I255
I255
tp46
Rp47
ag1
(I255
I255
I255
I255
tp48
Rp49
ag1
(I255
I255
I255
I255
tp50
Rp51
ag1
(I255
I255
I255
I255
tp52
Rp53
ag1
(I255
I255
I255
I255
tp54
Rp55
ag1
(I255
I255
I255
I255
tp56
Rp57
ag1
(I255
I255
I255
I255
tp58
Rp59
ag1
(I255
I255
I255
I255
tp60
Rp61
ag1
(I255
I255
I255
I255
tp62
Rp63
ag1
(I255
I255
I255
I255
tp64
Rp65
ag1
(I255
I255
I255
I255
tp66
Rp67
ag1
(I255
I255
I255
I255
tp68
Rp69
ag1
(I255
I255
I255
I255
tp70
Rp71
ag1
(I255
I255
I255
I255
tp72
Rp73
ag1
(I255
I255
I255
I255
tp74
Rp75
ag1
(I255
I255
I255
I255
tp76
Rp77
ag1
(I255
I255
I255
I255
tp78
Rp79
ag1
(I255
I255
I255
I255
tp80
Rp81
ag1
(I255
I255
I255
I255
tp82
Rp83
ag1
(I255
I255
I255
I255
tp84
Rp85
ag1
(I255
I255
I255
I255
tp86
Rp87
ag1
(I255
I255
I255
I255
tp88
Rp89
ag1
(I255
I255
I255
I255
tp90
Rp91
ag1
(I255
I255
I255
I255
tp92
Rp93
ag1
(I255
I255
I255
I255
tp94
Rp95
ag1
(I255
I255
I255
I255
tp96
Rp97
ag1
(I255
I255
I255
I255
tp98
Rp99
ag1
(I255
I255
I255
I255
tp100
Rp101
ag1
(I255
I255
I255
I255
tp102
Rp103
ag1
(I255
I255
I255
I255
tp104
Rp105
ag1
(I255
I255
I255
I255
tp106
Rp107
ag1
(I255
I255
I255
I255
tp108
Rp109
ag1
(I255
I255
I255
I255
tp110
Rp111
ag1
(I255
I255
I255
I255
tp112
Rp113
ag1
(I255
I255
I255
I255
tp114
Rp115
ag1
(I255
I255
I255
I255
tp116
Rp117
ag1
(I255
I255
I255
I255
tp118
Rp119
ag1
(I255
I255
I255
I255
tp120
Rp121
ag1
(I255
I255
I255
I255
tp122
Rp123
ag1
(I255
I255
I255
I255
tp124
Rp125
ag1
(I255
I255
I255
I255
tp126
Rp127
ag1
(I255
I255
I255
I255
tp128
Rp129
ag1
(I255
I255
I255
I255
tp130
Rp131
ag1
(I255
I255
I255
I255
tp132
Rp133
ag1
(I255
I255
I255
I255
tp134
Rp135
ag1
(I255
I255
I255
I255
tp136
Rp137
ag1
(I255
I255
I255
I255
tp138
Rp139
ag1
(I255
I255
I255
I255
tp140
Rp141
ag1
(I255
I255
I255
I255
tp142
Rp143
ag1
(I255
I255
I255
I255
tp144
Rp145
ag1
(I255
I255
I255
I255
tp146
Rp147
ag1
(I255
I255
I255
I255
tp148
Rp149
ag1
(I255
I255
I255
I255
tp150
Rp151
ag1
(I255
I255
I255
I255
tp152
Rp153
ag1
(I255
I255
I255
I255
tp154
Rp155
ag1
(I255
I255
I255
I255
tp156
Rp157
ag1
(I255
I255
I255
I255
tp158
Rp159
ag1
(I255
I255
I255
I255
tp160
Rp161
ag1
(I255
I255
I255
I255
tp162
Rp163
ag1
(I255
I255
I255
I255
tp164
Rp165
ag1
(I255
I255
I255
I255
tp166
Rp167
ag1
(I255
I255
I255
I255
tp168
Rp169
ag1
(I255
I255
I255
I255
tp170
Rp171
ag1
(I255
I255
I255
I255
tp172
Rp173
ag1
(I255
I255
I255
I255
tp174
Rp175
ag1
(I255
I255
I255
I255
tp176
Rp177
ag1
(I255
I255
I255
I255
tp178
Rp179
ag1
(I255
I255
I255
I255
tp180
Rp181
ag1
(I255
I255
I255
I255
tp182
Rp183
ag1
(I255
I255
I255
I255
tp184
Rp185
ag1
(I255
I255
I255
I255
tp186
Rp187
ag1
(I255
I255
I255
I255
tp188
Rp189
ag1
(I255
I255
I255
I255
tp190
Rp191
ag1
(I255
I255
I255
I255
tp192
Rp193
ag1
(I255
I255
I255
I255
tp194
Rp195
ag1
(I255
I255
I255
I255
tp196
Rp197
ag1
(I255
I255
I255
I255
tp198
Rp199
ag1
(I255
I255
I255
I255
tp200
Rp201
ag1
(I255
I255
I255
I255
tp202
Rp203
ag1
(I255
I255
I255
I255
tp204
Rp205
ag1
(I255
I255
I255
I255
tp206
Rp207
ag1
(I255
I255
I255
I255
tp208
Rp209
ag1
(I255
I255
I255
I255
tp210
Rp211
ag1
(I255
I255
I255
I255
tp212
Rp213
ag1
(I255
I255
I255
I255
tp214
Rp215
ag1
(I255
I255
I255
I255
tp216
Rp217
ag1
(I255
I255
I255
I255
tp218
Rp219
ag1
(I255
I255
I255
I255
tp220
Rp221
ag1
(I255
I255
I255
I255
tp222
Rp223
ag1
(I255
I255
I255
I255
tp224
Rp225
ag1
(I255
I255
I255
I255
tp226
Rp227
ag1
(I255
I255
I255
I255
tp228
Rp229
ag1
(I255
I255
I255
I255
tp230
Rp231
ag1
(I255
I255
I255
I255
tp232
Rp233
ag1
(I255
I255
I255
I255
tp234
Rp235
ag1
(I255
I255
I255
I255
tp236
Rp237
ag1
(I255
I255
I255
I255
tp238
Rp239
ag1
(I255
I255
I255
I255
tp240
Rp241
ag1
(I255
I255
I255
I255
tp242
Rp243
ag1
(I255
I255
I255
I255
tp244
Rp245
ag1
(I255
I255
I255
I255
tp246
Rp247
ag1
(I255
I255
I255
I255
tp248
Rp249
ag1
(I255
I255
I255
I255
tp250
Rp251
ag1
(I255
I255
I255
I255
tp252
Rp253
ag1
(I255
I255
I255
I255
tp254
Rp255
ag1
(I255
I255
I255
I255
tp256
Rp257
ag1
(I255
I255
I255
I255
tp258
Rp259
ag1
(I255
I255
I255
I255
tp260
Rp261
ag1
(I255
I255
I255
I255
tp262
Rp263
ag1
(I255
I255
I255
I255
tp264
Rp265
ag1
(I255
I255
I255
I255
tp266
Rp267
ag1
(I255
I255
I255
I255
tp268
Rp269
ag1
(I255
I255
I255
I255
tp270
Rp271
ag1
(I255
I255
I255
I255
tp272
Rp273
ag1
(I255
I255
I255
I255
tp274
Rp275
ag1
(I255
I255
I255
I255
tp276
Rp277
ag1
(I255
I255
I255
I255
tp278
Rp279
ag1
(I255
I255
I255
I255
tp280
Rp281
ag1
(I255
I255
I255
I255
tp282
Rp283
ag1
(I255
I255
I255
I255
tp284
Rp285
ag1
(I255
I255
I255
I255
tp286
Rp287
ag1
(I255
I255
I255
I255
tp288
Rp289
ag1
(I255
I255
I255
I255
tp290
Rp291
ag1
(I255
I255
I255
I255
tp292
Rp293
ag1
(I255
I255
I255
I255
tp294
Rp295
ag1
(I255
I255
I255
I255
tp296
Rp297
ag1
(I255
I255
I255
I255
tp298
Rp299
ag1
(I255
I255
I255
I255
tp300
Rp301
ag1
(I255
I255
I255
I255
tp302
Rp303
ag1
(I255
I255
I255
I255
tp304
Rp305
ag1
(I255
I255
I255
I255
tp306
Rp307
ag1
(I255
I255
I255
I255
tp308
Rp309
ag1
(I255
I255
I255
I255
tp310
Rp311
ag1
(I255
I255
I255
I255
tp312
Rp313
ag1
(I255
I255
I255
I255
tp314
Rp315
ag1
(I255
I255
I255
I255
tp316
Rp317
ag1
(I255
I255
I255
I255
tp318
Rp319
ag1
(I255
I255
I255
I255
tp320
Rp321
ag1
(I255
I255
I255
I255
tp322
Rp323
ag1
(I255
I255
I255
I255
tp324
Rp325
ag1
(I255
I255
I255
I255
tp326
Rp327
ag1
(I255
I255
I255
I255
tp328
Rp329
ag1
(I255
I255
I255
I255
tp330
Rp331
ag1
(I255
I255
I255
I255
tp332
Rp333
ag1
(I255
I255
I255
I255
tp334
Rp335
ag1
(I255
I255
I255
I255
tp336
Rp337
ag1
(I255
I255
I255
I255
tp338
Rp339
ag1
(I255
I255
I255
I255
tp340
Rp341
ag1
(I255
I255
I255
I255
tp342
Rp343
ag1
(I255
I255
I255
I255
tp344
Rp345
ag1
(I255
I255
I255
I255
tp346
Rp347
ag1
(I255
I255
I255
I255
tp348
Rp349
ag1
(I255
I255
I255
I255
tp350
Rp351
ag1
(I255
I255
I255
I255
tp352
Rp353
ag1
(I255
I255
I255
I255
tp354
Rp355
ag1
(I255
I255
I255
I255
tp356
Rp357
ag1
(I255
I255
I255
I255
tp358
Rp359
ag1
(I255
I255
I255
I255
tp360
Rp361
ag1
(I255
I255
I255
I255
tp362
Rp363
ag1
(I255
I255
I255
I255
tp364
Rp365
ag1
(I255
I255
I255
I255
tp366
Rp367
ag1
(I255
I255
I255
I255
tp368
Rp369
ag1
(I255
I255
I255
I255
tp370
Rp371
ag1
(I255
I255
I255
I255
tp372
Rp373
ag1
(I255
I255
I255
I255
tp374
Rp375
ag1
(I255
I255
I255
I255
tp376
Rp377
ag1
(I255
I255
I255
I255
tp378
Rp379
ag1
(I255
I255
I255
I255
tp380
Rp381
ag1
(I255
I255
I255
I255
tp382
Rp383
ag1
(I255
I255
I255
I255
tp384
Rp385
ag1
(I255
I255
I255
I255
tp386
Rp387
ag1
(I255
I255
I255
I255
tp388
Rp389
ag1
(I255
I255
I255
I255
tp390
Rp391
ag1
(I255
I255
I255
I255
tp392
Rp393
ag1
(I255
I255
I255
I255
tp394
Rp395
ag1
(I255
I255
I255
I255
tp396
Rp397
ag1
(I255
I255
I255
I255
tp398
Rp399
ag1
(I255
I255
I255
I255
tp400
Rp401
ag1
(I255
I255
I255
I255
tp402
Rp403
ag1
(I255
I255
I255
I255
tp404
Rp405
ag1
(I255
I255
I255
I255
tp406
Rp407
ag1
(I255
I255
I255
I255
tp408
Rp409
ag1
(I255
I255
I255
I255
tp410
Rp411
ag1
(I255
I255
I255
I255
tp412
Rp413
ag1
(I255
I255
I255
I255
tp414
Rp415
ag1
(I255
I255
I255
I255
tp416
Rp417
ag1
(I255
I255
I255
I255
tp418
Rp419
ag1
(I255
I255
I255
I255
tp420
Rp421
ag1
(I255
I255
I255
I255
tp422
Rp423
ag1
(I255
I255
I255
I255
tp424
Rp425
ag1
(I255
I255
I255
I255
tp426
Rp427
ag1
(I255
I255
I255
I255
tp428
Rp429
ag1
(I255
I255
I255
I255
tp430
Rp431
ag1
(I255
I255
I255
I255
tp432
Rp433
ag1
(I255
I255
I255
I255
tp434
Rp435
ag1
(I255
I255
I255
I255
tp436
Rp437
ag1
(I255
I255
I255
I255
tp438
Rp439
ag1
(I255
I255
I255
I255
tp440
Rp441
ag1
(I255
I255
I255
I255
tp442
Rp443
ag1
(I255
I255
I255
I255
tp444
Rp445
ag1
(I255
I255
I255
I255
tp446
Rp447
ag1
(I255
I255
I255
I255
tp448
Rp449
ag1
(I255
I255
I255
I255
tp450
Rp451
ag1
(I255
I255
I255
I255
tp452
Rp453
ag1
(I255
I255
I255
I255
tp454
Rp455
ag1
(I255
I255
I255
I255
tp456
Rp457
ag1
(I255
I255
I255
I255
tp458
Rp459
ag1
(I255
I255
I255
I255
tp460
Rp461
ag1
(I255
I255
I255
I255
tp462
Rp463
ag1
(I255
I255
I255
I255
tp464
Rp465
ag1
(I255
I255
I255
I255
tp466
Rp467
ag1
(I255
I255
I255
I255
tp468
Rp469
ag1
(I255
I255
I255
I255
tp470
Rp471
ag1
(I255
I255
I255
I255
tp472
Rp473
ag1
(I255
I255
I255
I255
tp474
Rp475
ag1
(I255
I255
I255
I255
tp476
Rp477
ag1
(I255
I255
I255
I255
tp478
Rp479
ag1
(I255
I255
I255
I255
tp480
Rp481
ag1
(I255
I255
I255
I255
tp482
Rp483
ag1
(I255
I255
I255
I255
tp484
Rp485
ag1
(I255
I255
I255
I255
tp486
Rp487
ag1
(I255
I255
I255
I255
tp488
Rp489
ag1
(I255
I255
I255
I255
tp490
Rp491
ag1
(I255
I255
I255
I255
tp492
Rp493
ag1
(I255
I255
I255
I255
tp494
Rp495
ag1
(I255
I255
I255
I255
tp496
Rp497
ag1
(I255
I255
I255
I255
tp498
Rp499
ag1
(I255
I255
I255
I255
tp500
Rp501
ag1
(I255
I255
I255
I255
tp502
Rp503
ag1
(I255
I255
I255
I255
tp504
Rp505
ag1
(I255
I255
I255
I255
tp506
Rp507
ag1
(I255
I255
I255
I255
tp508
Rp509
ag1
(I255
I255
I255
I255
tp510
Rp511
ag1
(I255
I255
I255
I255
tp512
Rp513
ag1
(I255
I255
I255
I255
tp514
Rp515
ag1
(I255
I255
I255
I255
tp516
Rp517
ag1
(I255
I255
I255
I255
tp518
Rp519
ag1
(I255
I255
I255
I255
tp520
Rp521
ag1
(I255
I255
I255
I255
tp522
Rp523
ag1
(I255
I255
I255
I255
tp524
Rp525
ag1
(I255
I255
I255
I255
tp526
Rp527
ag1
(I255
I255
I255
I255
tp528
Rp529
ag1
(I255
I255
I255
I255
tp530
Rp531
ag1
(I255
I255
I255
I255
tp532
Rp533
ag1
(I255
I255
I255
I255
tp534
Rp535
ag1
(I255
I255
I255
I255
tp536
Rp537
ag1
(I255
I255
I255
I255
tp538
Rp539
ag1
(I255
I255
I255
I255
tp540
Rp541
ag1
(I255
I255
I255
I255
tp542
Rp543
ag1
(I255
I255
I255
I255
tp544
Rp545
ag1
(I255
I255
I255
I255
tp546
Rp547
ag1
(I255
I255
I255
I255
tp548
Rp549
ag1
(I255
I255
I255
I255
tp550
Rp551
ag1
(I255
I255
I255
I255
tp552
Rp553
ag1
(I255
I255
I255
I255
tp554
Rp555
ag1
(I255
I255
I255
I255
tp556
Rp557
ag1
(I255
I255
I255
I255
tp558
Rp559
ag1
(I255
I255
I255
I255
tp560
Rp561
ag1
(I255
I255
I255
I255
tp562
Rp563
ag1
(I255
I255
I255
I255
tp564
Rp565
ag1
(I255
I255
I255
I255
tp566
Rp567
ag1
(I255
I255
I255
I255
tp568
Rp569
ag1
(I255
I255
I255
I255
tp570
Rp571
ag1
(I255
I255
I255
I255
tp572
Rp573
ag1
(I255
I255
I255
I255
tp574
Rp575
ag1
(I255
I255
I255
I255
tp576
Rp577
ag1
(I255
I255
I255
I255
tp578
Rp579
ag1
(I255
I255
I255
I255
tp580
Rp581
ag1
(I255
I255
I255
I255
tp582
Rp583
ag1
(I255
I255
I255
I255
tp584
Rp585
ag1
(I255
I255
I255
I255
tp586
Rp587
ag1
(I255
I255
I255
I255
tp588
Rp589
ag1
(I255
I255
I255
I255
tp590
Rp591
ag1
(I255
I255
I255
I255
tp592
Rp593
ag1
(I255
I255
I255
I255
tp594
Rp595
ag1
(I255
I255
I255
I255
tp596
Rp597
ag1
(I255
I255
I255
I255
tp598
Rp599
ag1
(I255
I255
I255
I255
tp600
Rp601
ag1
(I255
I255
I255
I255
tp602
Rp603
ag1
(I255
I255
I255
I255
tp604
Rp605
ag1
(I255
I255
I255
I255
tp606
Rp607
ag1
(I255
I255
I255
I255
tp608
Rp609
ag1
(I255
I255
I255
I255
tp610
Rp611
ag1
(I255
I255
I255
I255
tp612
Rp613
ag1
(I255
I255
I255
I255
tp614
Rp615
ag1
(I255
I255
I255
I255
tp616
Rp617
ag1
(I255
I255
I255
I255
tp618
Rp619
ag1
(I255
I255
I255
I255
tp620
Rp621
ag1
(I255
I255
I255
I255
tp622
Rp623
ag1
(I255
I255
I255
I255
tp624
Rp625
ag1
(I255
I255
I255
I255
tp626
Rp627
ag1
(I255
I255
I255
I255
tp628
Rp629
ag1
(I255
I255
I255
I255
tp630
Rp631
ag1
(I255
I255
I255
I255
tp632
Rp633
ag1
(I255
I255
I255
I255
tp634
Rp635
ag1
(I255
I255
I255
I255
tp636
Rp637
ag1
(I255
I255
I255
I255
tp638
Rp639
ag1
(I255
I255
I255
I255
tp640
Rp641
ag1
(I255
I255
I255
I255
tp642
Rp643
ag1
(I255
I255
I255
I255
tp644
Rp645
ag1
(I255
I255
I255
I255
tp646
Rp647
ag1
(I255
I255
I255
I255
tp648
Rp649
ag1
(I255
I255
I255
I255
tp650
Rp651
ag1
(I255
I255
I255
I255
tp652
Rp653
ag1
(I255
I255
I255
I255
tp654
Rp655
ag1
(I255
I255
I255
I255
tp656
Rp657
ag1
(I255
I255
I255
I255
tp658
Rp659
ag1
(I255
I255
I255
I255
tp660
Rp661
ag1
(I255
I255
I255
I255
tp662
Rp663
ag1
(I255
I255
I255
I255
tp664
Rp665
ag1
(I255
I255
I255
I255
tp666
Rp667
ag1
(I255
I255
I255
I255
tp668
Rp669
ag1
(I255
I255
I255
I255
tp670
Rp671
ag1
(I255
I255
I255
I255
tp672
Rp673
ag1
(I255
I255
I255
I255
tp674
Rp675
ag1
(I255
I255
I255
I255
tp676
Rp677
ag1
(I255
I255
I255
I255
tp678
Rp679
ag1
(I255
I255
I255
I255
tp680
Rp681
ag1
(I255
I255
I255
I255
tp682
Rp683
ag1
(I255
I255
I255
I255
tp684
Rp685
ag1
(I255
I255
I255
I255
tp686
Rp687
ag1
(I255
I255
I255
I255
tp688
Rp689
ag1
(I255
I255
I255
I255
tp690
Rp691
ag1
(I255
I255
I255
I255
tp692
Rp693
ag1
(I255
I255
I255
I255
tp694
Rp695
ag1
(I255
I255
I255
I255
tp696
Rp697
ag1
(I255
I255
I255
I255
tp698
Rp699
ag1
(I255
I255
I255
I255
tp700
Rp701
ag1
(I255
I255
I255
I255
tp702
Rp703
ag1
(I255
I255
I255
I255
tp704
Rp705
ag1
(I255
I255
I255
I255
tp706
Rp707
ag1
(I255
I255
I255
I255
tp708
Rp709
ag1
(I255
I255
I255
I255
tp710
Rp711
ag1
(I255
I255
I255
I255
tp712
Rp713
ag1
(I255
I255
I255
I255
tp714
Rp715
ag1
(I255
I255
I255
I255
tp716
Rp717
ag1
(I255
I255
I255
I255
tp718
Rp719
ag1
(I255
I255
I255
I255
tp720
Rp721
ag1
(I255
I255
I255
I255
tp722
Rp723
ag1
(I255
I255
I255
I255
tp724
Rp725
ag1
(I255
I255
I255
I255
tp726
Rp727
ag1
(I255
I255
I255
I255
tp728
Rp729
ag1
(I255
I255
I255
I255
tp730
Rp731
ag1
(I255
I255
I255
I255
tp732
Rp733
ag1
(I255
I255
I255
I255
tp734
Rp735
ag1
(I255
I255
I255
I255
tp736
Rp737
ag1
(I255
I255
I255
I255
tp738
Rp739
ag1
(I255
I255
I255
I255
tp740
Rp741
ag1
(I255
I255
I255
I255
tp742
Rp743
ag1
(I255
I255
I255
I255
tp744
Rp745
ag1
(I255
I255
I255
I255
tp746
Rp747
ag1
(I255
I255
I255
I255
tp748
Rp749
ag1
(I255
I255
I255
I255
tp750
Rp751
ag1
(I255
I255
I255
I255
tp752
Rp753
ag1
(I255
I255
I255
I255
tp754
Rp755
ag1
(I255
I255
I255
I255
tp756
Rp757
ag1
(I255
I255
I255
I255
tp758
Rp759
ag1
(I255
I255
I255
I255
tp760
Rp761
ag1
(I255
I255
I255
I255
tp762
Rp763
ag1
(I255
I255
I255
I255
tp764
Rp765
ag1
(I255
I255
I255
I255
tp766
Rp767
ag1
(I255
I255
I255
I255
tp768
Rp769
ag1
(I255
I255
I255
I255
tp770
Rp771
ag1
(I255
I255
I255
I255
tp772
Rp773
ag1
(I255
I255
I255
I255
tp774
Rp775
ag1
(I255
I255
I255
I255
tp776
Rp777
ag1
(I255
I255
I255
I255
tp778
Rp779
ag1
(I255
I255
I255
I255
tp780
Rp781
ag1
(I255
I255
I255
I255
tp782
Rp783
ag1
(I255
I255
I255
I255
tp784
Rp785
ag1
(I255
I255
I255
I255
tp786
Rp787
ag1
(I255
I255
I255
I255
tp788
Rp789
ag1
(I255
I255
I255
I255
tp790
Rp791
ag1
(I255
I255
I255
I255
tp792
Rp793
ag1
(I255
I255
I255
I255
tp794
Rp795
ag1
(I255
I255
I255
I255
tp796
Rp797
ag1
(I255
I255
I255
I255
tp798
Rp799
ag1
(I255
I255
I255
I255
tp800
Rp801
ag1
(I255
I255
I255
I255
tp802
Rp803
ag1
(I255
I255
I255
I255
tp804
Rp805
ag1
(I255
I255
I255
I255
tp806
Rp807
ag1
(I255
I255
I255
I255
tp808
Rp809
ag1
(I255
I255
I255
I255
tp810
Rp811
ag1
(I255
I255
I255
I255
tp812
Rp813
ag1
(I255
I255
I255
I255
tp814
Rp815
ag1
(I255
I255
I255
I255
tp816
Rp817
ag1
(I255
I255
I255
I255
tp818
Rp819
ag1
(I255
I255
I255
I255
tp820
Rp821
ag1
(I255
I255
I255
I255
tp822
Rp823
ag1
(I255
I255
I255
I255
tp824
Rp825
ag1
(I255
I255
I255
I255
tp826
Rp827
ag1
(I255
I255
I255
I255
tp828
Rp829
ag1
(I255
I255
I255
I255
tp830
Rp831
ag1
(I255
I255
I255
I255
tp832
Rp833
ag1
(I255
I255
I255
I255
tp834
Rp835
ag1
(I255
I255
I255
I255
tp836
Rp837
ag1
(I255
I255
I255
I255
tp838
Rp839
ag1
(I255
I255
I255
I255
tp840
Rp841
ag1
(I255
I255
I255
I255
tp842
Rp843
ag1
(I255
I255
I255
I255
tp844
Rp845
ag1
(I255
I255
I255
I255
tp846
Rp847
ag1
(I255
I255
I255
I255
tp848
Rp849
ag1
(I255
I255
I255
I255
tp850
Rp851
ag1
(I255
I255
I255
I255
tp852
Rp853
ag1
(I255
I255
I255
I255
tp854
Rp855
ag1
(I255
I255
I255
I255
tp856
Rp857
ag1
(I255
I255
I255
I255
tp858
Rp859
ag1
(I255
I255
I255
I255
tp860
Rp861
ag1
(I255
I255
I255
I255
tp862
Rp863
ag1
(I255
I255
I255
I255
tp864
Rp865
ag1
(I255
I255
I255
I255
tp866
Rp867
ag1
(I255
I255
I255
I255
tp868
Rp869
ag1
(I255
I255
I255
I255
tp870
Rp871
ag1
(I255
I255
I255
I255
tp872
Rp873
ag1
(I255
I255
I255
I255
tp874
Rp875
ag1
(I255
I255
I255
I255
tp876
Rp877
ag1
(I255
I255
I255
I255
tp878
Rp879
ag1
(I255
I255
I255
I255
tp880
Rp881
ag1
(I255
I255
I255
I255
tp882
Rp883
ag1
(I255
I255
I255
I255
tp884
Rp885
ag1
(I255
I255
I255
I255
tp886
Rp887
ag1
(I255
I255
I255
I255
tp888
Rp889
ag1
(I255
I255
I255
I255
tp890
Rp891
ag1
(I255
I255
I255
I255
tp892
Rp893
ag1
(I255
I255
I255
I255
tp894
Rp895
ag1
(I255
I255
I255
I255
tp896
Rp897
ag1
(I255
I255
I255
I255
tp898
Rp899
ag1
(I255
I255
I255
I255
tp900
Rp901
ag1
(I255
I255
I255
I255
tp902
Rp903
ag1
(I255
I255
I255
I255
tp904
Rp905
ag1
(I255
I255
I255
I255
tp906
Rp907
ag1
(I255
I255
I255
I255
tp908
Rp909
ag1
(I255
I255
I255
I255
tp910
Rp911
ag1
(I255
I255
I255
I255
tp912
Rp913
ag1
(I255
I255
I255
I255
tp914
Rp915
ag1
(I255
I255
I255
I255
tp916
Rp917
ag1
(I255
I255
I255
I255
tp918
Rp919
ag1
(I255
I255
I255
I255
tp920
Rp921
ag1
(I255
I255
I255
I255
tp922
Rp923
ag1
(I255
I255
I255
I255
tp924
Rp925
ag1
(I255
I255
I255
I255
tp926
Rp927
ag1
(I255
I255
I255
I255
tp928
Rp929
ag1
(I255
I255
I255
I255
tp930
Rp931
ag1
(I255
I255
I255
I255
tp932
Rp933
ag1
(I255
I255
I255
I255
tp934
Rp935
ag1
(I255
I255
I255
I255
tp936
Rp937
ag1
(I255
I255
I255
I255
tp938
Rp939
ag1
(I255
I255
I255
I255
tp940
Rp941
ag1
(I255
I255
I255
I255
tp942
Rp943
ag1
(I255
I255
I255
I255
tp944
Rp945
ag1
(I255
I255
I255
I255
tp946
Rp947
ag1
(I255
I255
I255
I255
tp948
Rp949
ag1
(I255
I255
I255
I255
tp950
Rp951
ag1
(I255
I255
I255
I255
tp952
Rp953
ag1
(I255
I255
I255
I255
tp954
Rp955
ag1
(I255
I255
I255
I255
tp956
Rp957
ag1
(I255
I255
I255
I255
tp958
Rp959
ag1
(I255
I255
I255
I255
tp960
Rp961
ag1
(I255
I255
I255
I255
tp962
Rp963
ag1
(I255
I255
I255
I255
tp964
Rp965
ag1
(I255
I255
I255
I255
tp966
Rp967
ag1
(I255
I255
I255
I255
tp968
Rp969
ag1
(I255
I255
I255
I255
tp970
Rp971
ag1
(I255
I255
I255
I255
tp972
Rp973
ag1
(I255
I255
I255
I255
tp974
Rp975
ag1
(I255
I255
I255
I255
tp976
Rp977
ag1
(I255
I255
I255
I255
tp978
Rp979
ag1
(I255
I255
I255
I255
tp980
Rp981
ag1
(I255
I255
I255
I255
tp982
Rp983
ag1
(I255
I255
I255
I255
tp984
Rp985
ag1
(I255
I255
I255
I255
tp986
Rp987
ag1
(I255
I255
I255
I255
tp988
Rp989
ag1
(I255
I255
I255
I255
tp990
Rp991
ag1
(I255
I255
I255
I255
tp992
Rp993
ag1
(I255
I255
I255
I255
tp994
Rp995
ag1
(I255
I255
I255
I255
tp996
Rp997
ag1
(I255
I255
I255
I255
tp998
Rp999
ag1
(I255
I255
I255
I255
tp1000
Rp1001
ag1
(I255
I255
I255
I255
tp1002
Rp1003
ag1
(I255
I255
I255
I255
tp1004
Rp1005
ag1
(I255
I255
I255
I255
tp1006
Rp1007
ag1
(I255
I255
I255
I255
tp1008
Rp1009
ag1
(I255
I255
I255
I255
tp1010
Rp1011
ag1
(I255
I255
I255
I255
tp1012
Rp1013
ag1
(I255
I255
I255
I255
tp1014
Rp1015
ag1
(I255
I255
I255
I255
tp1016
Rp1017
ag1
(I255
I255
I255
I255
tp1018
Rp1019
ag1
(I255
I255
I255
I255
tp1020
Rp1021
ag1
(I255
I255
I255
I255
tp1022
Rp1023
ag1
(I255
I255
I255
I255
tp1024
Rp1025
ag1
(I255
I255
I255
I255
tp1026
Rp1027
ag1
(I255
I255
I255
I255
tp1028
Rp1029
ag1
(I255
I255
I255
I255
tp1030
Rp1031
ag1
(I255
I255
I255
I255
tp1032
Rp1033
ag1
(I255
I255
I255
I255
tp1034
Rp1035
ag1
(I255
I255
I255
I255
tp1036
Rp1037
ag1
(I255
I255
I255
I255
tp1038
Rp1039
ag1
(I255
I255
I255
I255
tp1040
Rp1041
ag1
(I255
I255
I255
I255
tp1042
Rp1043
ag1
(I255
I255
I255
I255
tp1044
Rp1045
ag1
(I255
I255
I255
I255
tp1046
Rp1047
ag1
(I255
I255
I255
I255
tp1048
Rp1049
ag1
(I255
I255
I255
I255
tp1050
Rp1051
ag1
(I255
I255
I255
I255
tp1052
Rp1053
ag1
(I255
I255
I255
I255
tp1054
Rp1055
ag1
(I255
I255
I255
I255
tp1056
Rp1057
ag1
(I255
I255
I255
I255
tp1058
Rp1059
ag1
(I255
I255
I255
I255
tp1060
Rp1061
ag1
(I255
I255
I255
I255
tp1062
Rp1063
ag1
(I255
I255
I255
I255
tp1064
Rp1065
ag1
(I255
I255
I255
I255
tp1066
Rp1067
ag1
(I255
I255
I255
I255
tp1068
Rp1069
ag1
(I255
I255
I255
I255
tp1070
Rp1071
ag1
(I255
I255
I255
I255
tp1072
Rp1073
ag1
(I255
I255
I255
I255
tp1074
Rp1075
ag1
(I255
I255
I255
I255
tp1076
Rp1077
ag1
(I255
I255
I255
I255
tp1078
Rp1079
ag1
(I255
I255
I255
I255
tp1080
Rp1081
ag1
(I255
I255
I255
I255
tp1082
Rp1083
ag1
(I255
I255
I255
I255
tp1084
Rp1085
ag1
(I255
I255
I255
I255
tp1086
Rp1087
ag1
(I255
I255
I255
I255
tp1088
Rp1089
ag1
(I255
I255
I255
I255
tp1090
Rp1091
ag1
(I255
I255
I255
I255
tp1092
Rp1093
ag1
(I255
I255
I255
I255
tp1094
Rp1095
ag1
(I255
I255
I255
I255
tp1096
Rp1097
ag1
(I255
I255
I255
I255
tp1098
Rp1099
ag1
(I255
I255
I255
I255
tp1100
Rp1101
ag1
(I255
I255
I255
I255
tp1102
Rp1103
ag1
(I255
I255
I255
I255
tp1104
Rp1105
ag1
(I255
I255
I255
I255
tp1106
Rp1107
ag1
(I255
I255
I255
I255
tp1108
Rp1109
ag1
(I255
I255
I255
I255
tp1110
Rp1111
ag1
(I255
I255
I255
I255
tp1112
Rp1113
ag1
(I255
I255
I255
I255
tp1114
Rp1115
ag1
(I255
I255
I255
I255
tp1116
Rp1117
ag1
(I255
I255
I255
I255
tp1118
Rp1119
ag1
(I255
I255
I255
I255
tp1120
Rp1121
ag1
(I255
I255
I255
I255
tp1122
Rp1123
ag1
(I255
I255
I255
I255
tp1124
Rp1125
ag1
(I255
I255
I255
I255
tp1126
Rp1127
ag1
(I255
I255
I255
I255
tp1128
Rp1129
ag1
(I255
I255
I255
I255
tp1130
Rp1131
ag1
(I255
I255
I255
I255
tp1132
Rp1133
ag1
(I255
I255
I255
I255
tp1134
Rp1135
ag1
(I255
I255
I255
I255
tp1136
Rp1137
ag1
(I255
I255
I255
I255
tp1138
Rp1139
ag1
(I255
I255
I255
I255
tp1140
Rp1141
ag1
(I255
I255
I255
I255
tp1142
Rp1143
ag1
(I255
I255
I255
I255
tp1144
Rp1145
ag1
(I255
I255
I255
I255
tp1146
Rp1147
ag1
(I255
I255
I255
I255
tp1148
Rp1149
ag1
(I255
I255
I255
I255
tp1150
Rp1151
ag1
(I255
I255
I255
I255
tp1152
Rp1153
ag1
(I255
I255
I255
I255
tp1154
Rp1155
ag1
(I255
I255
I255
I255
tp1156
Rp1157
ag1
(I255
I255
I255
I255
tp1158
Rp1159
ag1
(I255
I255
I255
I255
tp1160
Rp1161
ag1
(I255
I255
I255
I255
tp1162
Rp1163
ag1
(I255
I255
I255
I255
tp1164
Rp1165
ag1
(I255
I255
I255
I255
tp1166
Rp1167
ag1
(I255
I255
I255
I255
tp1168
Rp1169
ag1
(I255
I255
I255
I255
tp1170
Rp1171
ag1
(I255
I255
I255
I255
tp1172
Rp1173
ag1
(I255
I255
I255
I255
tp1174
Rp1175
ag1
(I255
I255
I255
I255
tp1176
Rp1177
ag1
(I255
I255
I255
I255
tp1178
Rp1179
ag1
(I255
I255
I255
I255
tp1180
Rp1181
ag1
(I255
I255
I255
I255
tp1182
Rp1183
ag1
(I255
I255
I255
I255
tp1184
Rp1185
ag1
(I255
I255
I255
I255
tp1186
Rp1187
ag1
(I255
I255
I255
I255
tp1188
Rp1189
ag1
(I255
I255
I255
I255
tp1190
Rp1191
ag1
(I255
I255
I255
I255
tp1192
Rp1193
ag1
(I255
I255
I255
I255
tp1194
Rp1195
ag1
(I255
I255
I255
I255
tp1196
Rp1197
ag1
(I255
I255
I255
I255
tp1198
Rp1199
ag1
(I255
I255
I255
I255
tp1200
Rp1201
ag1
(I255
I255
I255
I255
tp1202
Rp1203
ag1
(I255
I255
I255
I255
tp1204
Rp1205
ag1
(I255
I255
I255
I255
tp1206
Rp1207
ag1
(I255
I255
I255
I255
tp1208
Rp1209
ag1
(I255
I255
I255
I255
tp1210
Rp1211
ag1
(I255
I255
I255
I255
tp1212
Rp1213
ag1
(I255
I255
I255
I255
tp1214
Rp1215
ag1
(I255
I255
I255
I255
tp1216
Rp1217
ag1
(I255
I255
I255
I255
tp1218
Rp1219
ag1
(I255
I255
I255
I255
tp1220
Rp1221
ag1
(I255
I255
I255
I255
tp1222
Rp1223
ag1
(I255
I255
I255
I255
tp1224
Rp1225
ag1
(I255
I255
I255
I255
tp1226
Rp1227
ag1
(I255
I255
I255
I255
tp1228
Rp1229
ag1
(I255
I255
I255
I255
tp1230
Rp1231
ag1
(I255
I255
I255
I255
tp1232
Rp1233
ag1
(I255
I255
I255
I255
tp1234
Rp1235
ag1
(I255
I255
I255
I255
tp1236
Rp1237
ag1
(I255
I255
I255
I255
tp1238
Rp1239
ag1
(I255
I255
I255
I255
tp1240
Rp1241
ag1
(I255
I255
I255
I255
tp1242
Rp1243
ag1
(I255
I255
I255
I255
tp1244
Rp1245
ag1
(I255
I255
I255
I255
tp1246
Rp1247
ag1
(I255
I255
I255
I255
tp1248
Rp1249
ag1
(I255
I255
I255
I255
tp1250
Rp1251
ag1
(I255
I255
I255
I255
tp1252
Rp1253
ag1
(I255
I255
I255
I255
tp1254
Rp1255
ag1
(I255
I255
I255
I255
tp1256
Rp1257
ag1
(I255
I255
I255
I255
tp1258
Rp1259
ag1
(I255
I255
I255
I255
tp1260
Rp1261
ag1
(I255
I255
I255
I255
tp1262
Rp1263
ag1
(I255
I255
I255
I255
tp1264
Rp1265
ag1
(I255
I255
I255
I255
tp1266
Rp1267
ag1
(I255
I255
I255
I255
tp1268
Rp1269
ag1
(I255
I255
I255
I255
tp1270
Rp1271
ag1
(I255
I255
I255
I255
tp1272
Rp1273
ag1
(I255
I255
I255
I255
tp1274
Rp1275
ag1
(I255
I255
I255
I255
tp1276
Rp1277
ag1
(I255
I255
I255
I255
tp1278
Rp1279
ag1
(I255
I255
I255
I255
tp1280
Rp1281
ag1
(I255
I255
I255
I255
tp1282
Rp1283
ag1
(I255
I255
I255
I255
tp1284
Rp1285
ag1
(I255
I255
I255
I255
tp1286
Rp1287
ag1
(I255
I255
I255
I255
tp1288
Rp1289
ag1
(I255
I255
I255
I255
tp1290
Rp1291
ag1
(I255
I255
I255
I255
tp1292
Rp1293
ag1
(I255
I255
I255
I255
tp1294
Rp1295
ag1
(I255
I255
I255
I255
tp1296
Rp1297
ag1
(I255
I255
I255
I255
tp1298
Rp1299
ag1
(I255
I255
I255
I255
tp1300
Rp1301
ag1
(I255
I255
I255
I255
tp1302
Rp1303
ag1
(I255
I255
I255
I255
tp1304
Rp1305
ag1
(I255
I255
I255
I255
tp1306
Rp1307
ag1
(I255
I255
I255
I255
tp1308
Rp1309
ag1
(I255
I255
I255
I255
tp1310
Rp1311
ag1
(I255
I255
I255
I255
tp1312
Rp1313
ag1
(I255
I255
I255
I255
tp1314
Rp1315
ag1
(I255
I255
I255
I255
tp1316
Rp1317
ag1
(I255
I255
I255
I255
tp1318
Rp1319
ag1
(I255
I255
I255
I255
tp1320
Rp1321
ag1
(I255
I255
I255
I255
tp1322
Rp1323
ag1
(I255
I255
I255
I255
tp1324
Rp1325
ag1
(I255
I255
I255
I255
tp1326
Rp1327
ag1
(I255
I255
I255
I255
tp1328
Rp1329
ag1
(I255
I255
I255
I255
tp1330
Rp1331
ag1
(I255
I255
I255
I255
tp1332
Rp1333
ag1
(I255
I255
I255
I255
tp1334
Rp1335
ag1
(I255
I255
I255
I255
tp1336
Rp1337
ag1
(I255
I255
I255
I255
tp1338
Rp1339
ag1
(I255
I255
I255
I255
tp1340
Rp1341
ag1
(I255
I255
I255
I255
tp1342
Rp1343
ag1
(I255
I255
I255
I255
tp1344
Rp1345
ag1
(I255
I255
I255
I255
tp1346
Rp1347
ag1
(I255
I255
I255
I255
tp1348
Rp1349
ag1
(I255
I255
I255
I255
tp1350
Rp1351
ag1
(I255
I255
I255
I255
tp1352
Rp1353
ag1
(I255
I255
I255
I255
tp1354
Rp1355
ag1
(I255
I255
I255
I255
tp1356
Rp1357
ag1
(I255
I255
I255
I255
tp1358
Rp1359
ag1
(I255
I255
I255
I255
tp1360
Rp1361
ag1
(I255
I255
I255
I255
tp1362
Rp1363
ag1
(I255
I255
I255
I255
tp1364
Rp1365
ag1
(I255
I255
I255
I255
tp1366
Rp1367
ag1
(I255
I255
I255
I255
tp1368
Rp1369
ag1
(I255
I255
I255
I255
tp1370
Rp1371
ag1
(I255
I255
I255
I255
tp1372
Rp1373
ag1
(I255
I255
I255
I255
tp1374
Rp1375
ag1
(I255
I255
I255
I255
tp1376
Rp1377
ag1
(I255
I255
I255
I255
tp1378
Rp1379
ag1
(I255
I255
I255
I255
tp1380
Rp1381
ag1
(I255
I255
I255
I255
tp1382
Rp1383
ag1
(I255
I255
I255
I255
tp1384
Rp1385
ag1
(I255
I255
I255
I255
tp1386
Rp1387
ag1
(I255
I255
I255
I255
tp1388
Rp1389
ag1
(I255
I255
I255
I255
tp1390
Rp1391
ag1
(I255
I255
I255
I255
tp1392
Rp1393
ag1
(I255
I255
I255
I255
tp1394
Rp1395
ag1
(I255
I255
I255
I255
tp1396
Rp1397
ag1
(I255
I255
I255
I255
tp1398
Rp1399
ag1
(I255
I255
I255
I255
tp1400
Rp1401
ag1
(I255
I255
I255
I255
tp1402
Rp1403
ag1
(I255
I255
I255
I255
tp1404
Rp1405
ag1
(I255
I255
I255
I255
tp1406
Rp1407
ag1
(I255
I255
I255
I255
tp1408
Rp1409
ag1
(I255
I255
I255
I255
tp1410
Rp1411
ag1
(I255
I255
I255
I255
tp1412
Rp1413
ag1
(I255
I255
I255
I255
tp1414
Rp1415
ag1
(I255
I255
I255
I255
tp1416
Rp1417
ag1
(I255
I255
I255
I255
tp1418
Rp1419
ag1
(I255
I255
I255
I255
tp1420
Rp1421
ag1
(I255
I255
I255
I255
tp1422
Rp1423
ag1
(I255
I255
I255
I255
tp1424
Rp1425
ag1
(I255
I255
I255
I255
tp1426
Rp1427
ag1
(I255
I255
I255
I255
tp1428
Rp1429
ag1
(I255
I255
I255
I255
tp1430
Rp1431
ag1
(I255
I255
I255
I255
tp1432
Rp1433
ag1
(I255
I255
I255
I255
tp1434
Rp1435
ag1
(I255
I255
I255
I255
tp1436
Rp1437
ag1
(I255
I255
I255
I255
tp1438
Rp1439
ag1
(I255
I255
I255
I255
tp1440
Rp1441
ag1
(I255
I255
I255
I255
tp1442
Rp1443
ag1
(I255
I255
I255
I255
tp1444
Rp1445
ag1
(I255
I255
I255
I255
tp1446
Rp1447
ag1
(I255
I255
I255
I255
tp1448
Rp1449
ag1
(I255
I255
I255
I255
tp1450
Rp1451
ag1
(I255
I255
I255
I255
tp1452
Rp1453
ag1
(I255
I255
I255
I255
tp1454
Rp1455
ag1
(I255
I255
I255
I255
tp1456
Rp1457
ag1
(I255
I255
I255
I255
tp1458
Rp1459
ag1
(I255
I255
I255
I255
tp1460
Rp1461
ag1
(I255
I255
I255
I255
tp1462
Rp1463
ag1
(I255
I255
I255
I255
tp1464
Rp1465
ag1
(I255
I255
I255
I255
tp1466
Rp1467
ag1
(I255
I255
I255
I255
tp1468
Rp1469
ag1
(I255
I255
I255
I255
tp1470
Rp1471
ag1
(I255
I255
I255
I255
tp1472
Rp1473
ag1
(I255
I255
I255
I255
tp1474
Rp1475
ag1
(I255
I255
I255
I255
tp1476
Rp1477
ag1
(I255
I255
I255
I255
tp1478
Rp1479
ag1
(I255
I255
I255
I255
tp1480
Rp1481
ag1
(I255
I255
I255
I255
tp1482
Rp1483
ag1
(I255
I255
I255
I255
tp1484
Rp1485
ag1
(I255
I255
I255
I255
tp1486
Rp1487
ag1
(I255
I255
I255
I255
tp1488
Rp1489
ag1
(I255
I255
I255
I255
tp1490
Rp1491
ag1
(I255
I255
I255
I255
tp1492
Rp1493
ag1
(I255
I255
I255
I255
tp1494
Rp1495
ag1
(I255
I255
I255
I255
tp1496
Rp1497
ag1
(I255
I255
I255
I255
tp1498
Rp1499
ag1
(I255
I255
I255
I255
tp1500
Rp1501
ag1
(I255
I255
I255
I255
tp1502
Rp1503
ag1
(I255
I255
I255
I255
tp1504
Rp1505
ag1
(I255
I255
I255
I255
tp1506
Rp1507
ag1
(I255
I255
I255
I255
tp1508
Rp1509
ag1
(I255
I255
I255
I255
tp1510
Rp1511
ag1
(I255
I255
I255
I255
tp1512
Rp1513
ag1
(I255
I255
I255
I255
tp1514
Rp1515
ag1
(I255
I255
I255
I255
tp1516
Rp1517
ag1
(I255
I255
I255
I255
tp1518
Rp1519
ag1
(I255
I255
I255
I255
tp1520
Rp1521
ag1
(I255
I255
I255
I255
tp1522
Rp1523
ag1
(I255
I255
I255
I255
tp1524
Rp1525
ag1
(I255
I255
I255
I255
tp1526
Rp1527
ag1
(I255
I255
I255
I255
tp1528
Rp1529
ag1
(I255
I255
I255
I255
tp1530
Rp1531
ag1
(I255
I255
I255
I255
tp1532
Rp1533
ag1
(I255
I255
I255
I255
tp1534
Rp1535
ag1
(I255
I255
I255
I255
tp1536
Rp1537
ag1
(I255
I255
I255
I255
tp1538
Rp1539
ag1
(I255
I255
I255
I255
tp1540
Rp1541
ag1
(I255
I255
I255
I255
tp1542
Rp1543
ag1
(I255
I255
I255
I255
tp1544
Rp1545
ag1
(I255
I255
I255
I255
tp1546
Rp1547
ag1
(I255
I255
I255
I255
tp1548
Rp1549
ag1
(I255
I255
I255
I255
tp1550
Rp1551
ag1
(I255
I255
I255
I255
tp1552
Rp1553
ag1
(I255
I255
I255
I255
tp1554
Rp1555
ag1
(I255
I255
I255
I255
tp1556
Rp1557
ag1
(I255
I255
I255
I255
tp1558
Rp1559
ag1
(I255
I255
I255
I255
tp1560
Rp1561
ag1
(I255
I255
I255
I255
tp1562
Rp1563
ag1
(I255
I255
I255
I255
tp1564
Rp1565
ag1
(I255
I255
I255
I255
tp1566
Rp1567
ag1
(I255
I255
I255
I255
tp1568
Rp1569
ag1
(I255
I255
I255
I255
tp1570
Rp1571
ag1
(I255
I255
I255
I255
tp1572
Rp1573
ag1
(I255
I255
I255
I255
tp1574
Rp1575
ag1
(I255
I255
I255
I255
tp1576
Rp1577
ag1
(I255
I255
I255
I255
tp1578
Rp1579
ag1
(I255
I255
I255
I255
tp1580
Rp1581
ag1
(I255
I255
I255
I255
tp1582
Rp1583
ag1
(I255
I255
I255
I255
tp1584
Rp1585
ag1
(I255
I255
I255
I255
tp1586
Rp1587
ag1
(I255
I255
I255
I255
tp1588
Rp1589
ag1
(I255
I255
I255
I255
tp1590
Rp1591
ag1
(I255
I255
I255
I255
tp1592
Rp1593
ag1
(I255
I255
I255
I255
tp1594
Rp1595
ag1
(I255
I255
I255
I255
tp1596
Rp1597
ag1
(I255
I255
I255
I255
tp1598
Rp1599
ag1
(I255
I255
I255
I255
tp1600
Rp1601
ag1
(I255
I255
I255
I255
tp1602
Rp1603
ag1
(I255
I255
I255
I255
tp1604
Rp1605
ag1
(I255
I255
I255
I255
tp1606
Rp1607
ag1
(I255
I255
I255
I255
tp1608
Rp1609
ag1
(I255
I255
I255
I255
tp1610
Rp1611
ag1
(I255
I255
I255
I255
tp1612
Rp1613
ag1
(I255
I255
I255
I255
tp1614
Rp1615
ag1
(I255
I255
I255
I255
tp1616
Rp1617
ag1
(I255
I255
I255
I255
tp1618
Rp1619
ag1
(I255
I255
I255
I255
tp1620
Rp1621
ag1
(I255
I255
I255
I255
tp1622
Rp1623
ag1
(I255
I255
I255
I255
tp1624
Rp1625
ag1
(I255
I255
I255
I255
tp1626
Rp1627
ag1
(I255
I255
I255
I255
tp1628
Rp1629
ag1
(I255
I255
I255
I255
tp1630
Rp1631
ag1
(I255
I255
I255
I255
tp1632
Rp1633
ag1
(I255
I255
I255
I255
tp1634
Rp1635
ag1
(I255
I0
I0
I255
tp1636
Rp1637
ag1
(I255
I255
I255
I255
tp1638
Rp1639
ag1
(I255
I0
I0
I255
tp1640
Rp1641
ag1
(I255
I255
I255
I255
tp1642
Rp1643
ag1
(I255
I255
I255
I255
tp1644
Rp1645
ag1
(I255
I255
I255
I255
tp1646
Rp1647
ag1
(I255
I255
I255
I255
tp1648
Rp1649
ag1
(I255
I255
I255
I255
tp1650
Rp1651
ag1
(I255
I255
I255
I255
tp1652
Rp1653
ag1
(I255
I255
I255
I255
tp1654
Rp1655
ag1
(I255
I255
I255
I255
tp1656
Rp1657
ag1
(I255
I255
I255
I255
tp1658
Rp1659
ag1
(I255
I255
I255
I255
tp1660
Rp1661
ag1
(I255
I255
I255
I255
tp1662
Rp1663
ag1
(I255
I255
I255
I255
tp1664
Rp1665
ag1
(I255
I255
I255
I255
tp1666
Rp1667
ag1
(I255
I255
I255
I255
tp1668
Rp1669
ag1
(I255
I255
I255
I255
tp1670
Rp1671
ag1
(I255
I255
I255
I255
tp1672
Rp1673
ag1
(I255
I255
I255
I255
tp1674
Rp1675
ag1
(I255
I255
I255
I255
tp1676
Rp1677
ag1
(I255
I255
I255
I255
tp1678
Rp1679
ag1
(I255
I255
I255
I255
tp1680
Rp1681
ag1
(I255
I255
I255
I255
tp1682
Rp1683
ag1
(I255
I255
I255
I255
tp1684
Rp1685
ag1
(I255
I255
I255
I255
tp1686
Rp1687
ag1
(I255
I255
I255
I255
tp1688
Rp1689
ag1
(I255
I255
I255
I255
tp1690
Rp1691
ag1
(I255
I255
I255
I255
tp1692
Rp1693
ag1
(I255
I255
I255
I255
tp1694
Rp1695
ag1
(I255
I255
I255
I255
tp1696
Rp1697
ag1
(I255
I255
I255
I255
tp1698
Rp1699
ag1
(I255
I255
I255
I255
tp1700
Rp1701
ag1
(I255
I255
I255
I255
tp1702
Rp1703
ag1
(I255
I255
I255
I255
tp1704
Rp1705
ag1
(I255
I255
I255
I255
tp1706
Rp1707
ag1
(I255
I255
I255
I255
tp1708
Rp1709
ag1
(I255
I255
I255
I255
tp1710
Rp1711
ag1
(I255
I255
I255
I255
tp1712
Rp1713
ag1
(I255
I255
I255
I255
tp1714
Rp1715
ag1
(I255
I255
I255
I255
tp1716
Rp1717
ag1
(I255
I255
I255
I255
tp1718
Rp1719
ag1
(I255
I255
I255
I255
tp1720
Rp1721
ag1
(I255
I255
I255
I255
tp1722
Rp1723
ag1
(I255
I255
I255
I255
tp1724
Rp1725
ag1
(I255
I255
I255
I255
tp1726
Rp1727
ag1
(I255
I255
I255
I255
tp1728
Rp1729
ag1
(I255
I255
I255
I255
tp1730
Rp1731
ag1
(I255
I255
I255
I255
tp1732
Rp1733
ag1
(I255
I255
I255
I255
tp1734
Rp1735
ag1
(I255
I255
I255
I255
tp1736
Rp1737
ag1
(I255
I255
I0
I255
tp1738
Rp1739
ag1
(I255
I255
I255
I255
tp1740
Rp1741
ag1
(I255
I255
I255
I255
tp1742
Rp1743
ag1
(I255
I255
I255
I255
tp1744
Rp1745
ag1
(I255
I255
I255
I255
tp1746
Rp1747
ag1
(I255
I255
I255
I255
tp1748
Rp1749
ag1
(I255
I255
I255
I255
tp1750
Rp1751
ag1
(I255
I255
I255
I255
tp1752
Rp1753
ag1
(I255
I255
I255
I255
tp1754
Rp1755
ag1
(I255
I255
I255
I255
tp1756
Rp1757
ag1
(I255
I255
I255
I255
tp1758
Rp1759
ag1
(I255
I255
I255
I255
tp1760
Rp1761
ag1
(I255
I255
I255
I255
tp1762
Rp1763
ag1
(I255
I255
I255
I255
tp1764
Rp1765
ag1
(I255
I255
I255
I255
tp1766
Rp1767
ag1
(I255
I255
I255
I255
tp1768
Rp1769
ag1
(I255
I255
I255
I255
tp1770
Rp1771
ag1
(I255
I255
I255
I255
tp1772
Rp1773
ag1
(I255
I255
I255
I255
tp1774
Rp1775
ag1
(I255
I255
I255
I255
tp1776
Rp1777
ag1
(I255
I255
I255
I255
tp1778
Rp1779
ag1
(I255
I255
I255
I255
tp1780
Rp1781
ag1
(I255
I255
I255
I255
tp1782
Rp1783
ag1
(I255
I255
I255
I255
tp1784
Rp1785
ag1
(I255
I255
I255
I255
tp1786
Rp1787
ag1
(I255
I255
I255
I255
tp1788
Rp1789
ag1
(I255
I255
I255
I255
tp1790
Rp1791
ag1
(I255
I255
I255
I255
tp1792
Rp1793
ag1
(I255
I255
I255
I255
tp1794
Rp1795
ag1
(I255
I255
I255
I255
tp1796
Rp1797
ag1
(I255
I255
I255
I255
tp1798
Rp1799
ag1
(I255
I255
I255
I255
tp1800
Rp1801
ag1
(I255
I255
I255
I255
tp1802
Rp1803
ag1
(I255
I255
I255
I255
tp1804
Rp1805
ag1
(I255
I255
I255
I255
tp1806
Rp1807
ag1
(I255
I255
I255
I255
tp1808
Rp1809
ag1
(I255
I255
I255
I255
tp1810
Rp1811
ag1
(I255
I255
I255
I255
tp1812
Rp1813
ag1
(I255
I255
I255
I255
tp1814
Rp1815
ag1
(I255
I255
I255
I255
tp1816
Rp1817
ag1
(I255
I255
I255
I255
tp1818
Rp1819
ag1
(I255
I255
I255
I255
tp1820
Rp1821
ag1
(I255
I255
I255
I255
tp1822
Rp1823
ag1
(I255
I255
I255
I255
tp1824
Rp1825
ag1
(I255
I255
I255
I255
tp1826
Rp1827
ag1
(I255
I255
I255
I255
tp1828
Rp1829
ag1
(I255
I255
I255
I255
tp1830
Rp1831
ag1
(I255
I255
I255
I255
tp1832
Rp1833
ag1
(I255
I255
I255
I255
tp1834
Rp1835
ag1
(I255
I0
I0
I255
tp1836
Rp1837
ag1
(I255
I255
I255
I255
tp1838
Rp1839
ag1
(I255
I0
I0
I255
tp1840
Rp1841
ag1
(I255
I255
I255
I255
tp1842
Rp1843
ag1
(I255
I255
I255
I255
tp1844
Rp1845
ag1
(I255
I255
I255
I255
tp1846
Rp1847
ag1
(I255
I255
I255
I255
tp1848
Rp1849
ag1
(I255
I255
I255
I255
tp1850
Rp1851
ag1
(I255
I255
I255
I255
tp1852
Rp1853
ag1
(I255
I255
I255
I255
tp1854
Rp1855
ag1
(I255
I255
I255
I255
tp1856
Rp1857
ag1
(I255
I255
I255
I255
tp1858
Rp1859
ag1
(I255
I255
I255
I255
tp1860
Rp1861
ag1
(I255
I255
I255
I255
tp1862
Rp1863
ag1
(I255
I255
I255
I255
tp1864
Rp1865
ag1
(I255
I255
I255
I255
tp1866
Rp1867
ag1
(I255
I255
I255
I255
tp1868
Rp1869
ag1
(I255
I255
I255
I255
tp1870
Rp1871
ag1
(I255
I255
I255
I255
tp1872
Rp1873
ag1
(I255
I255
I255
I255
tp1874
Rp1875
ag1
(I255
I255
I255
I255
tp1876
Rp1877
ag1
(I255
I255
I255
I255
tp1878
Rp1879
ag1
(I255
I255
I255
I255
tp1880
Rp1881
ag1
(I255
I255
I255
I255
tp1882
Rp1883
ag1
(I255
I255
I255
I255
tp1884
Rp1885
ag1
(I255
I255
I255
I255
tp1886
Rp1887
ag1
(I255
I255
I255
I255
tp1888
Rp1889
ag1
(I255
I255
I255
I255
tp1890
Rp1891
ag1
(I255
I255
I255
I255
tp1892
Rp1893
ag1
(I255
I255
I255
I255
tp1894
Rp1895
ag1
(I255
I255
I255
I255
tp1896
Rp1897
ag1
(I255
I255
I255
I255
tp1898
Rp1899
ag1
(I255
I255
I255
I255
tp1900
Rp1901
ag1
(I255
I255
I255
I255
tp1902
Rp1903
ag1
(I255
I255
I255
I255
tp1904
Rp1905
ag1
(I255
I255
I255
I255
tp1906
Rp1907
ag1
(I255
I255
I255
I255
tp1908
Rp1909
ag1
(I255
I255
I255
I255
tp1910
Rp1911
ag1
(I255
I255
I255
I255
tp1912
Rp1913
ag1
(I255
I255
I255
I255
tp1914
Rp1915
ag1
(I255
I255
I255
I255
tp1916
Rp1917
ag1
(I255
I255
I255
I255
tp1918
Rp1919
ag1
(I255
I255
I255
I255
tp1920
Rp1921
ag1
(I255
I255
I255
I255
tp1922
Rp1923
ag1
(I255
I255
I255
I255
tp1924
Rp1925
ag1
(I255
I255
I255
I255
tp1926
Rp1927
ag1
(I255
I255
I255
I255
tp1928
Rp1929
ag1
(I255
I255
I255
I255
tp1930
Rp1931
ag1
(I255
I255
I255
I255
tp1932
Rp1933
ag1
(I255
I255
I255
I255
tp1934
Rp1935
ag1
(I255
I255
I255
I255
tp1936
Rp1937
ag1
(I0
I255
I0
I255
tp1938
Rp1939
ag1
(I255
I255
I255
I255
tp1940
Rp1941
ag1
(I255
I255
I255
I255
tp1942
Rp1943
ag1
(I255
I255
I255
I255
tp1944
Rp1945
ag1
(I255
I255
I255
I255
tp1946
Rp1947
ag1
(I255
I255
I255
I255
tp1948
Rp1949
ag1
(I255
I255
I255
I255
tp1950
Rp1951
ag1
(I255
I255
I255
I255
tp1952
Rp1953
ag1
(I255
I255
I255
I255
tp1954
Rp1955
ag1
(I255
I255
I255
I255
tp1956
Rp1957
ag1
(I255
I255
I255
I255
tp1958
Rp1959
ag1
(I255
I255
I255
I255
tp1960
Rp1961
ag1
(I255
I255
I255
I255
tp1962
Rp1963
ag1
(I255
I255
I255
I255
tp1964
Rp1965
ag1
(I255
I255
I255
I255
tp1966
Rp1967
ag1
(I255
I255
I255
I255
tp1968
Rp1969
ag1
(I255
I255
I255
I255
tp1970
Rp1971
ag1
(I255
I255
I255
I255
tp1972
Rp1973
ag1
(I255
I255
I255
I255
tp1974
Rp1975
ag1
(I255
I255
I255
I255
tp1976
Rp1977
ag1
(I255
I255
I255
I255
tp1978
Rp1979
ag1
(I255
I255
I255
I255
tp1980
Rp1981
ag1
(I255
I255
I255
I255
tp1982
Rp1983
ag1
(I255
I255
I255
I255
tp1984
Rp1985
ag1
(I255
I255
I255
I255
tp1986
Rp1987
ag1
(I255
I255
I255
I255
tp1988
Rp1989
ag1
(I255
I255
I255
I255
tp1990
Rp1991
ag1
(I255
I255
I255
I255
tp1992
Rp1993
ag1
(I255
I255
I255
I255
tp1994
Rp1995
ag1
(I255
I255
I255
I255
tp1996
Rp1997
ag1
(I255
I255
I255
I255
tp1998
Rp1999
ag1
(I255
I255
I255
I255
tp2000
Rp2001
ag1
(I255
I255
I255
I255
tp2002
Rp2003
ag1
(I255
I255
I255
I255
tp2004
Rp2005
ag1
(I255
I255
I255
I255
tp2006
Rp2007
ag1
(I255
I255
I255
I255
tp2008
Rp2009
ag1
(I255
I255
I255
I255
tp2010
Rp2011
ag1
(I255
I255
I255
I255
tp2012
Rp2013
ag1
(I255
I255
I255
I255
tp2014
Rp2015
ag1
(I255
I255
I255
I255
tp2016
Rp2017
ag1
(I255
I255
I255
I255
tp2018
Rp2019
ag1
(I255
I255
I255
I255
tp2020
Rp2021
ag1
(I255
I255
I255
I255
tp2022
Rp2023
ag1
(I255
I255
I255
I255
tp2024
Rp2025
ag1
(I255
I255
I255
I255
tp2026
Rp2027
ag1
(I255
I255
I255
I255
tp2028
Rp2029
ag1
(I255
I255
I255
I255
tp2030
Rp2031
ag1
(I255
I255
I255
I255
tp2032
Rp2033
ag1
(I255
I255
I255
I255
tp2034
Rp2035
ag1
(I255
I255
I255
I255
tp2036
Rp2037
ag1
(I0
I255
I0
I255
tp2038
Rp2039
ag1
(I255
I255
I255
I255
tp2040
Rp2041
ag1
(I255
I255
I255
I255
tp2042
Rp2043
ag1
(I255
I255
I255
I255
tp2044
Rp2045
ag1
(I255
I255
I255
I255
tp2046
Rp2047
ag1
(I255
I255
I255
I255
tp2048
Rp2049
ag1
(I255
I255
I255
I255
tp2050
Rp2051
ag1
(I255
I255
I255
I255
tp2052
Rp2053
ag1
(I255
I255
I255
I255
tp2054
Rp2055
ag1
(I255
I255
I255
I255
tp2056
Rp2057
ag1
(I255
I255
I255
I255
tp2058
Rp2059
ag1
(I255
I255
I255
I255
tp2060
Rp2061
ag1
(I255
I255
I255
I255
tp2062
Rp2063
ag1
(I255
I255
I255
I255
tp2064
Rp2065
ag1
(I255
I255
I255
I255
tp2066
Rp2067
ag1
(I255
I255
I255
I255
tp2068
Rp2069
ag1
(I255
I255
I255
I255
tp2070
Rp2071
ag1
(I255
I255
I255
I255
tp2072
Rp2073
ag1
(I255
I255
I255
I255
tp2074
Rp2075
ag1
(I255
I255
I255
I255
tp2076
Rp2077
ag1
(I255
I255
I255
I255
tp2078
Rp2079
ag1
(I255
I255
I255
I255
tp2080
Rp2081
ag1
(I255
I255
I255
I255
tp2082
Rp2083
ag1
(I255
I255
I255
I255
tp2084
Rp2085
ag1
(I255
I255
I255
I255
tp2086
Rp2087
ag1
(I255
I255
I255
I255
tp2088
Rp2089
ag1
(I255
I255
I255
I255
tp2090
Rp2091
ag1
(I255
I255
I255
I255
tp2092
Rp2093
ag1
(I255
I255
I255
I255
tp2094
Rp2095
ag1
(I255
I255
I255
I255
tp2096
Rp2097
ag1
(I255
I255
I255
I255
tp2098
Rp2099
ag1
(I255
I255
I255
I255
tp2100
Rp2101
ag1
(I255
I255
I255
I255
tp2102
Rp2103
ag1
(I255
I255
I255
I255
tp2104
Rp2105
ag1
(I255
I255
I255
I255
tp2106
Rp2107
ag1
(I255
I255
I255
I255
tp2108
Rp2109
ag1
(I255
I255
I255
I255
tp2110
Rp2111
ag1
(I255
I255
I255
I255
tp2112
Rp2113
ag1
(I255
I255
I255
I255
tp2114
Rp2115
ag1
(I255
I255
I255
I255
tp2116
Rp2117
ag1
(I255
I255
I255
I255
tp2118
Rp2119
ag1
(I255
I255
I255
I255
tp2120
Rp2121
ag1
(I255
I255
I255
I255
tp2122
Rp2123
ag1
(I255
I255
I255
I255
tp2124
Rp2125
ag1
(I255
I255
I255
I255
tp2126
Rp2127
ag1
(I255
I255
I255
I255
tp2128
Rp2129
ag1
(I255
I255
I255
I255
tp2130
Rp2131
ag1
(I255
I255
I255
I255
tp2132
Rp2133
ag1
(I255
I255
I255
I255
tp2134
Rp2135
ag1
(I255
I255
I255
I255
tp2136
Rp2137
ag1
(I255
I255
I255
I255
tp2138
Rp2139
ag1
(I0
I255
I0
I255
tp2140
Rp2141
ag1
(I255
I255
I255
I255
tp2142
Rp2143
ag1
(I255
I255
I255
I255
tp2144
Rp2145
ag1
(I255
I255
I255
I255
tp2146
Rp2147
ag1
(I255
I255
I255
I255
tp2148
Rp2149
ag1
(I255
I255
I255
I255
tp2150
Rp2151
ag1
(I255
I255
I255
I255
tp2152
Rp2153
ag1
(I255
I255
I255
I255
tp2154
Rp2155
ag1
(I255
I255
I255
I255
tp2156
Rp2157
ag1
(I255
I255
I255
I255
tp2158
Rp2159
ag1
(I255
I255
I255
I255
tp2160
Rp2161
ag1
(I255
I255
I255
I255
tp2162
Rp2163
ag1
(I255
I255
I255
I255
tp2164
Rp2165
ag1
(I255
I255
I255
I255
tp2166
Rp2167
ag1
(I255
I255
I255
I255
tp2168
Rp2169
ag1
(I255
I255
I255
I255
tp2170
Rp2171
ag1
(I255
I255
I255
I255
tp2172
Rp2173
ag1
(I255
I255
I255
I255
tp2174
Rp2175
ag1
(I255
I255
I255
I255
tp2176
Rp2177
ag1
(I255
I255
I255
I255
tp2178
Rp2179
ag1
(I255
I255
I255
I255
tp2180
Rp2181
ag1
(I255
I255
I255
I255
tp2182
Rp2183
ag1
(I255
I255
I255
I255
tp2184
Rp2185
ag1
(I255
I255
I255
I255
tp2186
Rp2187
ag1
(I255
I255
I255
I255
tp2188
Rp2189
ag1
(I255
I255
I255
I255
tp2190
Rp2191
ag1
(I255
I255
I255
I255
tp2192
Rp2193
ag1
(I255
I255
I255
I255
tp2194
Rp2195
ag1
(I255
I255
I255
I255
tp2196
Rp2197
ag1
(I255
I255
I255
I255
tp2198
Rp2199
ag1
(I255
I255
I255
I255
tp2200
Rp2201
ag1
(I255
I255
I255
I255
tp2202
Rp2203
ag1
(I255
I255
I255
I255
tp2204
Rp2205
ag1
(I255
I255
I255
I255
tp2206
Rp2207
ag1
(I255
I255
I255
I255
tp2208
Rp2209
ag1
(I255
I255
I255
I255
tp2210
Rp2211
ag1
(I255
I255
I255
I255
tp2212
Rp2213
ag1
(I255
I255
I255
I255
tp2214
Rp2215
ag1
(I255
I255
I255
I255
tp2216
Rp2217
ag1
(I255
I255
I255
I255
tp2218
Rp2219
ag1
(I255
I255
I255
I255
tp2220
Rp2221
ag1
(I255
I255
I255
I255
tp2222
Rp2223
ag1
(I255
I255
I255
I255
tp2224
Rp2225
ag1
(I255
I255
I255
I255
tp2226
Rp2227
ag1
(I255
I255
I255
I255
tp2228
Rp2229
ag1
(I255
I255
I255
I255
tp2230
Rp2231
ag1
(I255
I255
I255
I255
tp2232
Rp2233
ag1
(I255
I255
I255
I255
tp2234
Rp2235
ag1
(I255
I255
I255
I255
tp2236
Rp2237
ag1
(I255
I255
I255
I255
tp2238
Rp2239
ag1
(I255
I255
I255
I255
tp2240
Rp2241
ag1
(I0
I255
I0
I255
tp2242
Rp2243
ag1
(I255
I255
I255
I255
tp2244
Rp2245
ag1
(I255
I255
I255
I255
tp2246
Rp2247
ag1
(I255
I255
I255
I255
tp2248
Rp2249
ag1
(I255
I255
I255
I255
tp2250
Rp2251
ag1
(I255
I255
I255
I255
tp2252
Rp2253
ag1
(I255
I255
I255
I255
tp2254
Rp2255
ag1
(I255
I255
I255
I255
tp2256
Rp2257
ag1
(I255
I255
I255
I255
tp2258
Rp2259
ag1
(I255
I255
I255
I255
tp2260
Rp2261
ag1
(I255
I255
I255
I255
tp2262
Rp2263
ag1
(I255
I255
I255
I255
tp2264
Rp2265
ag1
(I255
I255
I255
I255
tp2266
Rp2267
ag1
(I255
I255
I255
I255
tp2268
Rp2269
ag1
(I255
I255
I255
I255
tp2270
Rp2271
ag1
(I255
I255
I255
I255
tp2272
Rp2273
ag1
(I255
I255
I255
I255
tp2274
Rp2275
ag1
(I255
I255
I255
I255
tp2276
Rp2277
ag1
(I255
I255
I255
I255
tp2278
Rp2279
ag1
(I255
I255
I255
I255
tp2280
Rp2281
ag1
(I255
I255
I255
I255
tp2282
Rp2283
ag1
(I255
I255
I255
I255
tp2284
Rp2285
ag1
(I255
I255
I255
I255
tp2286
Rp2287
ag1
(I255
I255
I255
I255
tp2288
Rp2289
ag1
(I255
I255
I255
I255
tp2290
Rp2291
ag1
(I255
I255
I255
I255
tp2292
Rp2293
ag1
(I255
I255
I255
I255
tp2294
Rp2295
ag1
(I255
I255
I255
I255
tp2296
Rp2297
ag1
(I255
I255
I255
I255
tp2298
Rp2299
ag1
(I255
I255
I255
I255
tp2300
Rp2301
ag1
(I255
I255
I255
I255
tp2302
Rp2303
ag1
(I255
I255
I255
I255
tp2304
Rp2305
ag1
(I255
I255
I255
I255
tp2306
Rp2307
ag1
(I255
I255
I255
I255
tp2308
Rp2309
ag1
(I255
I255
I255
I255
tp2310
Rp2311
ag1
(I255
I255
I255
I255
tp2312
Rp2313
ag1
(I255
I255
I255
I255
tp2314
Rp2315
ag1
(I255
I255
I255
I255
tp2316
Rp2317
ag1
(I255
I255
I255
I255
tp2318
Rp2319
ag1
(I255
I255
I255
I255
tp2320
Rp2321
ag1
(I255
I255
I255
I255
tp2322
Rp2323
ag1
(I255
I255
I255
I255
tp2324
Rp2325
ag1
(I255
I255
I255
I255
tp2326
Rp2327
ag1
(I255
I255
I255
I255
tp2328
Rp2329
ag1
(I255
I255
I255
I255
tp2330
Rp2331
ag1
(I255
I255
I255
I255
tp2332
Rp2333
ag1
(I255
I255
I255
I255
tp2334
Rp2335
ag1
(I255
I255
I255
I255
tp2336
Rp2337
ag1
(I255
I255
I255
I255
tp2338
Rp2339
ag1
(I255
I255
I255
I255
tp2340
Rp2341
ag1
(I0
I255
I0
I255
tp2342
Rp2343
ag1
(I255
I255
I255
I255
tp2344
Rp2345
ag1
(I255
I255
I255
I255
tp2346
Rp2347
ag1
(I255
I255
I255
I255
tp2348
Rp2349
ag1
(I255
I255
I255
I255
tp2350
Rp2351
ag1
(I255
I255
I255
I255
tp2352
Rp2353
ag1
(I255
I255
I255
I255
tp2354
Rp2355
ag1
(I255
I255
I255
I255
tp2356
Rp2357
ag1
(I255
I255
I255
I255
tp2358
Rp2359
ag1
(I255
I255
I255
I255
tp2360
Rp2361
ag1
(I255
I255
I255
I255
tp2362
Rp2363
ag1
(I255
I255
I255
I255
tp2364
Rp2365
ag1
(I255
I255
I255
I255
tp2366
Rp2367
ag1
(I255
I255
I255
I255
tp2368
Rp2369
ag1
(I255
I255
I255
I255
tp2370
Rp2371
ag1
(I255
I255
I255
I255
tp2372
Rp2373
ag1
(I255
I255
I255
I255
tp2374
Rp2375
ag1
(I255
I255
I255
I255
tp2376
Rp2377
ag1
(I255
I255
I255
I255
tp2378
Rp2379
ag1
(I255
I255
I255
I255
tp2380
Rp2381
ag1
(I255
I255
I255
I255
tp2382
Rp2383
ag1
(I255
I255
I255
I255
tp2384
Rp2385
ag1
(I255
I255
I255
I255
tp2386
Rp2387
ag1
(I255
I255
I255
I255
tp2388
Rp2389
ag1
(I255
I255
I255
I255
tp2390
Rp2391
ag1
(I255
I255
I255
I255
tp2392
Rp2393
ag1
(I255
I255
I255
I255
tp2394
Rp2395
ag1
(I255
I255
I255
I255
tp2396
Rp2397
ag1
(I255
I255
I255
I255
tp2398
Rp2399
ag1
(I255
I255
I255
I255
tp2400
Rp2401
ag1
(I255
I255
I255
I255
tp2402
Rp2403
ag1
(I255
I255
I255
I255
tp2404
Rp2405
ag1
(I255
I255
I255
I255
tp2406
Rp2407
ag1
(I255
I255
I255
I255
tp2408
Rp2409
ag1
(I255
I255
I255
I255
tp2410
Rp2411
ag1
(I255
I255
I255
I255
tp2412
Rp2413
ag1
(I255
I255
I255
I255
tp2414
Rp2415
ag1
(I255
I255
I255
I255
tp2416
Rp2417
ag1
(I255
I255
I255
I255
tp2418
Rp2419
ag1
(I255
I255
I255
I255
tp2420
Rp2421
ag1
(I255
I255
I255
I255
tp2422
Rp2423
ag1
(I255
I255
I255
I255
tp2424
Rp2425
ag1
(I255
I255
I255
I255
tp2426
Rp2427
ag1
(I255
I255
I255
I255
tp2428
Rp2429
ag1
(I255
I255
I255
I255
tp2430
Rp2431
ag1
(I255
I255
I255
I255
tp2432
Rp2433
ag1
(I255
I255
I255
I255
tp2434
Rp2435
ag1
(I255
I255
I255
I255
tp2436
Rp2437
ag1
(I255
I255
I255
I255
tp2438
Rp2439
ag1
(I255
I255
I255
I255
tp2440
Rp2441
ag1
(I0
I255
I0
I255
tp2442
Rp2443
ag1
(I255
I255
I255
I255
tp2444
Rp2445
ag1
(I255
I255
I255
I255
tp2446
Rp2447
ag1
(I255
I255
I255
I255
tp2448
Rp2449
ag1
(I255
I255
I255
I255
tp2450
Rp2451
ag1
(I255
I255
I255
I255
tp2452
Rp2453
ag1
(I255
I255
I255
I255
tp2454
Rp2455
ag1
(I255
I255
I255
I255
tp2456
Rp2457
ag1
(I255
I255
I255
I255
tp2458
Rp2459
ag1
(I255
I255
I255
I255
tp2460
Rp2461
ag1
(I255
I255
I255
I255
tp2462
Rp2463
ag1
(I255
I255
I255
I255
tp2464
Rp2465
ag1
(I255
I255
I255
I255
tp2466
Rp2467
ag1
(I255
I255
I255
I255
tp2468
Rp2469
ag1
(I255
I255
I255
I255
tp2470
Rp2471
ag1
(I255
I255
I255
I255
tp2472
Rp2473
ag1
(I255
I255
I255
I255
tp2474
Rp2475
ag1
(I255
I255
I255
I255
tp2476
Rp2477
ag1
(I255
I255
I255
I255
tp2478
Rp2479
ag1
(I255
I255
I255
I255
tp2480
Rp2481
ag1
(I255
I255
I255
I255
tp2482
Rp2483
ag1
(I255
I255
I255
I255
tp2484
Rp2485
ag1
(I255
I255
I255
I255
tp2486
Rp2487
ag1
(I255
I255
I255
I255
tp2488
Rp2489
ag1
(I255
I255
I255
I255
tp2490
Rp2491
ag1
(I255
I255
I255
I255
tp2492
Rp2493
ag1
(I255
I255
I255
I255
tp2494
Rp2495
ag1
(I255
I255
I255
I255
tp2496
Rp2497
ag1
(I255
I255
I255
I255
tp2498
Rp2499
ag1
(I255
I255
I255
I255
tp2500
Rp2501
ag1
(I255
I255
I255
I255
tp2502
Rp2503
ag1
(I255
I255
I255
I255
tp2504
Rp2505
ag1
(I255
I255
I255
I255
tp2506
Rp2507
ag1
(I255
I255
I255
I255
tp2508
Rp2509
ag1
(I255
I255
I255
I255
tp2510
Rp2511
ag1
(I255
I255
I255
I255
tp2512
Rp2513
ag1
(I255
I255
I255
I255
tp2514
Rp2515
ag1
(I255
I255
I255
I255
tp2516
Rp2517
ag1
(I255
I255
I255
I255
tp2518
Rp2519
ag1
(I255
I255
I255
I255
tp2520
Rp2521
ag1
(I255
I255
I255
I255
tp2522
Rp2523
ag1
(I255
I255
I255
I255
tp2524
Rp2525
ag1
(I255
I255
I255
I255
tp2526
Rp2527
ag1
(I255
I255
I255
I255
tp2528
Rp2529
ag1
(I255
I255
I255
I255
tp2530
Rp2531
ag1
(I255
I255
I255
I255
tp2532
Rp2533
ag1
(I255
I255
I255
I255
tp2534
Rp2535
ag1
(I255
I255
I255
I255
tp2536
Rp2537
ag1
(I255
I255
I255
I255
tp2538
Rp2539
ag1
(I0
I255
I0
I255
tp2540
Rp2541
ag1
(I255
I255
I255
I255
tp2542
Rp2543
ag1
(I255
I255
I255
I255
tp2544
Rp2545
ag1
(I255
I255
I255
I255
tp2546
Rp2547
ag1
(I255
I255
I255
I255
tp2548
Rp2549
ag1
(I255
I255
I255
I255
tp2550
Rp2551
ag1
(I255
I255
I255
I255
tp2552
Rp2553
ag1
(I255
I255
I255
I255
tp2554
Rp2555
ag1
(I255
I255
I255
I255
tp2556
Rp2557
ag1
(I255
I255
I255
I255
tp2558
Rp2559
ag1
(I255
I255
I255
I255
tp2560
Rp2561
ag1
(I255
I255
I255
I255
tp2562
Rp2563
ag1
(I255
I255
I255
I255
tp2564
Rp2565
ag1
(I255
I255
I255
I255
tp2566
Rp2567
ag1
(I255
I255
I255
I255
tp2568
Rp2569
ag1
(I255
I255
I255
I255
tp2570
Rp2571
ag1
(I255
I255
I255
I255
tp2572
Rp2573
ag1
(I255
I255
I255
I255
tp2574
Rp2575
ag1
(I255
I255
I255
I255
tp2576
Rp2577
ag1
(I255
I255
I255
I255
tp2578
Rp2579
ag1
(I255
I255
I255
I255
tp2580
Rp2581
ag1
(I255
I255
I255
I255
tp2582
Rp2583
ag1
(I255
I255
I255
I255
tp2584
Rp2585
ag1
(I255
I255
I255
I255
tp2586
Rp2587
ag1
(I255
I255
I255
I255
tp2588
Rp2589
ag1
(I255
I255
I255
I255
tp2590
Rp2591
ag1
(I255
I255
I255
I255
tp2592
Rp2593
ag1
(I255
I255
I255
I255
tp2594
Rp2595
ag1
(I255
I255
I255
I255
tp2596
Rp2597
ag1
(I255
I255
I255
I255
tp2598
Rp2599
ag1
(I255
I255
I255
I255
tp2600
Rp2601
ag1
(I255
I255
I255
I255
tp2602
Rp2603
ag1
(I255
I255
I255
I255
tp2604
Rp2605
ag1
(I255
I255
I255
I255
tp2606
Rp2607
ag1
(I255
I255
I255
I255
tp2608
Rp2609
ag1
(I255
I255
I255
I255
tp2610
Rp2611
ag1
(I255
I255
I255
I255
tp2612
Rp2613
ag1
(I255
I255
I255
I255
tp2614
Rp2615
ag1
(I255
I255
I255
I255
tp2616
Rp2617
ag1
(I255
I255
I255
I255
tp2618
Rp2619
ag1
(I255
I255
I255
I255
tp2620
Rp2621
ag1
(I255
I255
I255
I255
tp2622
Rp2623
ag1
(I255
I255
I255
I255
tp2624
Rp2625
ag1
(I255
I255
I255
I255
tp2626
Rp2627
ag1
(I255
I255
I255
I255
tp2628
Rp2629
ag1
(I255
I255
I255
I255
tp2630
Rp2631
ag1
(I255
I255
I255
I255
tp2632
Rp2633
ag1
(I255
I255
I255
I255
tp2634
Rp2635
ag1
(I255
I255
I255
I255
tp2636
Rp2637
ag1
(I0
I255
I0
I255
tp2638
Rp2639
ag1
(I255
I255
I255
I255
tp2640
Rp2641
ag1
(I255
I255
I255
I255
tp2642
Rp2643
ag1
(I255
I255
I255
I255
tp2644
Rp2645
ag1
(I255
I255
I255
I255
tp2646
Rp2647
ag1
(I255
I255
I255
I255
tp2648
Rp2649
ag1
(I255
I255
I255
I255
tp2650
Rp2651
ag1
(I255
I255
I255
I255
tp2652
Rp2653
ag1
(I255
I255
I255
I255
tp2654
Rp2655
ag1
(I255
I255
I255
I255
tp2656
Rp2657
ag1
(I255
I255
I255
I255
tp2658
Rp2659
ag1
(I255
I255
I255
I255
tp2660
Rp2661
ag1
(I255
I255
I255
I255
tp2662
Rp2663
ag1
(I255
I255
I255
I255
tp2664
Rp2665
ag1
(I255
I255
I255
I255
tp2666
Rp2667
ag1
(I255
I255
I255
I255
tp2668
Rp2669
ag1
(I255
I255
I255
I255
tp2670
Rp2671
ag1
(I255
I255
I255
I255
tp2672
Rp2673
ag1
(I255
I255
I255
I255
tp2674
Rp2675
ag1
(I255
I255
I255
I255
tp2676
Rp2677
ag1
(I255
I255
I255
I255
tp2678
Rp2679
ag1
(I255
I255
I255
I255
tp2680
Rp2681
ag1
(I255
I255
I255
I255
tp2682
Rp2683
ag1
(I255
I255
I255
I255
tp2684
Rp2685
ag1
(I255
I255
I255
I255
tp2686
Rp2687
ag1
(I255
I255
I255
I255
tp2688
Rp2689
ag1
(I255
I255
I255
I255
tp2690
Rp2691
ag1
(I255
I255
I255
I255
tp2692
Rp2693
ag1
(I255
I255
I255
I255
tp2694
Rp2695
ag1
(I255
I255
I255
I255
tp2696
Rp2697
ag1
(I255
I255
I255
I255
tp2698
Rp2699
ag1
(I255
I255
I255
I255
tp2700
Rp2701
ag1
(I255
I255
I255
I255
tp2702
Rp2703
ag1
(I255
I255
I255
I255
tp2704
Rp2705
ag1
(I255
I255
I255
I255
tp2706
Rp2707
ag1
(I255
I255
I255
I255
tp2708
Rp2709
ag1
(I255
I255
I255
I255
tp2710
Rp2711
ag1
(I255
I255
I255
I255
tp2712
Rp2713
ag1
(I255
I255
I255
I255
tp2714
Rp2715
ag1
(I255
I255
I255
I255
tp2716
Rp2717
ag1
(I255
I255
I255
I255
tp2718
Rp2719
ag1
(I255
I255
I255
I255
tp2720
Rp2721
ag1
(I255
I255
I255
I255
tp2722
Rp2723
ag1
(I255
I255
I255
I255
tp2724
Rp2725
ag1
(I255
I255
I255
I255
tp2726
Rp2727
ag1
(I255
I255
I255
I255
tp2728
Rp2729
ag1
(I255
I255
I255
I255
tp2730
Rp2731
ag1
(I255
I255
I255
I255
tp2732
Rp2733
ag1
(I255
I255
I255
I255
tp2734
Rp2735
ag1
(I0
I255
I0
I255
tp2736
Rp2737
ag1
(I255
I255
I255
I255
tp2738
Rp2739
ag1
(I255
I255
I255
I255
tp2740
Rp2741
ag1
(I255
I255
I255
I255
tp2742
Rp2743
ag1
(I255
I255
I255
I255
tp2744
Rp2745
ag1
(I255
I255
I255
I255
tp2746
Rp2747
ag1
(I255
I255
I255
I255
tp2748
Rp2749
ag1
(I255
I255
I255
I255
tp2750
Rp2751
ag1
(I255
I255
I255
I255
tp2752
Rp2753
ag1
(I255
I255
I255
I255
tp2754
Rp2755
ag1
(I255
I255
I255
I255
tp2756
Rp2757
ag1
(I255
I255
I255
I255
tp2758
Rp2759
ag1
(I255
I255
I255
I255
tp2760
Rp2761
ag1
(I255
I255
I255
I255
tp2762
Rp2763
ag1
(I255
I255
I255
I255
tp2764
Rp2765
ag1
(I255
I255
I255
I255
tp2766
Rp2767
ag1
(I255
I255
I255
I255
tp2768
Rp2769
ag1
(I255
I255
I255
I255
tp2770
Rp2771
ag1
(I255
I255
I255
I255
tp2772
Rp2773
ag1
(I255
I255
I255
I255
tp2774
Rp2775
ag1
(I255
I255
I255
I255
tp2776
Rp2777
ag1
(I255
I255
I255
I255
tp2778
Rp2779
ag1
(I255
I255
I255
I255
tp2780
Rp2781
ag1
(I255
I255
I255
I255
tp2782
Rp2783
ag1
(I255
I255
I255
I255
tp2784
Rp2785
ag1
(I255
I255
I255
I255
tp2786
Rp2787
ag1
(I255
I255
I255
I255
tp2788
Rp2789
ag1
(I255
I255
I255
I255
tp2790
Rp2791
ag1
(I255
I255
I255
I255
tp2792
Rp2793
ag1
(I255
I255
I255
I255
tp2794
Rp2795
ag1
(I255
I255
I255
I255
tp2796
Rp2797
ag1
(I255
I255
I255
I255
tp2798
Rp2799
ag1
(I255
I255
I255
I255
tp2800
Rp2801
ag1
(I255
I255
I255
I255
tp2802
Rp2803
ag1
(I255
I255
I255
I255
tp2804
Rp2805
ag1
(I255
I255
I255
I255
tp2806
Rp2807
ag1
(I255
I255
I255
I255
tp2808
Rp2809
ag1
(I255
I255
I255
I255
tp2810
Rp2811
ag1
(I255
I255
I255
I255
tp2812
Rp2813
ag1
(I255
I255
I255
I255
tp2814
Rp2815
ag1
(I255
I255
I255
I255
tp2816
Rp2817
ag1
(I255
I255
I255
I255
tp2818
Rp2819
ag1
(I255
I255
I255
I255
tp2820
Rp2821
ag1
(I255
I255
I255
I255
tp2822
Rp2823
ag1
(I255
I255
I255
I255
tp2824
Rp2825
ag1
(I255
I255
I255
I255
tp2826
Rp2827
ag1
(I255
I255
I255
I255
tp2828
Rp2829
ag1
(I255
I255
I255
I255
tp2830
Rp2831
ag1
(I255
I255
I255
I255
tp2832
Rp2833
ag1
(I255
I255
I255
I255
tp2834
Rp2835
ag1
(I0
I255
I0
I255
tp2836
Rp2837
ag1
(I255
I255
I255
I255
tp2838
Rp2839
ag1
(I255
I255
I255
I255
tp2840
Rp2841
ag1
(I255
I255
I255
I255
tp2842
Rp2843
ag1
(I255
I255
I255
I255
tp2844
Rp2845
ag1
(I255
I255
I255
I255
tp2846
Rp2847
ag1
(I255
I255
I255
I255
tp2848
Rp2849
ag1
(I255
I255
I255
I255
tp2850
Rp2851
ag1
(I255
I255
I255
I255
tp2852
Rp2853
ag1
(I255
I255
I255
I255
tp2854
Rp2855
ag1
(I255
I255
I255
I255
tp2856
Rp2857
ag1
(I255
I255
I255
I255
tp2858
Rp2859
ag1
(I255
I255
I255
I255
tp2860
Rp2861
ag1
(I255
I255
I255
I255
tp2862
Rp2863
ag1
(I255
I255
I255
I255
tp2864
Rp2865
ag1
(I255
I255
I255
I255
tp2866
Rp2867
ag1
(I255
I255
I255
I255
tp2868
Rp2869
ag1
(I255
I255
I255
I255
tp2870
Rp2871
ag1
(I255
I255
I255
I255
tp2872
Rp2873
ag1
(I255
I255
I255
I255
tp2874
Rp2875
ag1
(I255
I255
I255
I255
tp2876
Rp2877
ag1
(I255
I255
I255
I255
tp2878
Rp2879
ag1
(I255
I255
I255
I255
tp2880
Rp2881
ag1
(I255
I255
I255
I255
tp2882
Rp2883
ag1
(I255
I255
I255
I255
tp2884
Rp2885
ag1
(I255
I255
I255
I255
tp2886
Rp2887
ag1
(I255
I255
I255
I255
tp2888
Rp2889
ag1
(I255
I255
I255
I255
tp2890
Rp2891
ag1
(I255
I255
I255
I255
tp2892
Rp2893
ag1
(I255
I255
I255
I255
tp2894
Rp2895
ag1
(I255
I255
I255
I255
tp2896
Rp2897
ag1
(I255
I255
I255
I255
tp2898
Rp2899
ag1
(I255
I255
I255
I255
tp2900
Rp2901
ag1
(I255
I255
I255
I255
tp2902
Rp2903
ag1
(I255
I255
I255
I255
tp2904
Rp2905
ag1
(I255
I255
I255
I255
tp2906
Rp2907
ag1
(I255
I255
I255
I255
tp2908
Rp2909
ag1
(I255
I255
I255
I255
tp2910
Rp2911
ag1
(I255
I255
I255
I255
tp2912
Rp2913
ag1
(I255
I255
I255
I255
tp2914
Rp2915
ag1
(I255
I255
I255
I255
tp2916
Rp2917
ag1
(I255
I255
I255
I255
tp2918
Rp2919
ag1
(I255
I255
I255
I255
tp2920
Rp2921
ag1
(I255
I255
I255
I255
tp2922
Rp2923
ag1
(I255
I255
I255
I255
tp2924
Rp2925
ag1
(I255
I255
I255
I255
tp2926
Rp2927
ag1
(I255
I255
I255
I255
tp2928
Rp2929
ag1
(I255
I255
I255
I255
tp2930
Rp2931
ag1
(I255
I255
I255
I255
tp2932
Rp2933
ag1
(I255
I255
I255
I255
tp2934
Rp2935
ag1
(I255
I255
I255
I255
tp2936
Rp2937
ag1
(I0
I255
I0
I255
tp2938
Rp2939
ag1
(I255
I255
I255
I255
tp2940
Rp2941
ag1
(I255
I255
I255
I255
tp2942
Rp2943
ag1
(I255
I255
I255
I255
tp2944
Rp2945
ag1
(I255
I255
I255
I255
tp2946
Rp2947
ag1
(I255
I255
I255
I255
tp2948
Rp2949
ag1
(I255
I255
I255
I255
tp2950
Rp2951
ag1
(I255
I255
I255
I255
tp2952
Rp2953
ag1
(I255
I255
I255
I255
tp2954
Rp2955
ag1
(I255
I255
I255
I255
tp2956
Rp2957
ag1
(I255
I255
I255
I255
tp2958
Rp2959
ag1
(I255
I255
I255
I255
tp2960
Rp2961
ag1
(I255
I255
I255
I255
tp2962
Rp2963
ag1
(I255
I255
I255
I255
tp2964
Rp2965
ag1
(I255
I255
I255
I255
tp2966
Rp2967
ag1
(I255
I255
I255
I255
tp2968
Rp2969
ag1
(I255
I255
I255
I255
tp2970
Rp2971
ag1
(I255
I255
I255
I255
tp2972
Rp2973
ag1
(I255
I255
I255
I255
tp2974
Rp2975
ag1
(I255
I255
I255
I255
tp2976
Rp2977
ag1
(I255
I255
I255
I255
tp2978
Rp2979
ag1
(I255
I255
I255
I255
tp2980
Rp2981
ag1
(I255
I255
I255
I255
tp2982
Rp2983
ag1
(I255
I255
I255
I255
tp2984
Rp2985
ag1
(I255
I255
I255
I255
tp2986
Rp2987
ag1
(I255
I255
I255
I255
tp2988
Rp2989
ag1
(I255
I255
I255
I255
tp2990
Rp2991
ag1
(I255
I255
I255
I255
tp2992
Rp2993
ag1
(I255
I255
I255
I255
tp2994
Rp2995
ag1
(I255
I255
I255
I255
tp2996
Rp2997
ag1
(I255
I255
I255
I255
tp2998
Rp2999
ag1
(I255
I255
I255
I255
tp3000
Rp3001
ag1
(I255
I255
I255
I255
tp3002
Rp3003
ag1
(I255
I255
I255
I255
tp3004
Rp3005
ag1
(I255
I255
I255
I255
tp3006
Rp3007
ag1
(I255
I255
I255
I255
tp3008
Rp3009
ag1
(I255
I255
I255
I255
tp3010
Rp3011
ag1
(I255
I255
I255
I255
tp3012
Rp3013
ag1
(I255
I255
I255
I255
tp3014
Rp3015
ag1
(I255
I255
I255
I255
tp3016
Rp3017
ag1
(I255
I255
I255
I255
tp3018
Rp3019
ag1
(I255
I255
I255
I255
tp3020
Rp3021
ag1
(I255
I255
I255
I255
tp3022
Rp3023
ag1
(I255
I255
I255
I255
tp3024
Rp3025
ag1
(I255
I255
I255
I255
tp3026
Rp3027
ag1
(I255
I255
I255
I255
tp3028
Rp3029
ag1
(I255
I255
I255
I255
tp3030
Rp3031
ag1
(I255
I255
I255
I255
tp3032
Rp3033
ag1
(I255
I255
I255
I255
tp3034
Rp3035
ag1
(I255
I255
I255
I255
tp3036
Rp3037
ag1
(I255
I255
I255
I255
tp3038
Rp3039
ag1
(I255
I255
I255
I255
tp3040
Rp3041
ag1
(I255
I255
I255
I255
tp3042
Rp3043
ag1
(I255
I255
I255
I255
tp3044
Rp3045
ag1
(I255
I255
I255
I255
tp3046
Rp3047
ag1
(I255
I255
I255
I255
tp3048
Rp3049
ag1
(I255
I255
I255
I255
tp3050
Rp3051
ag1
(I255
I255
I255
I255
tp3052
Rp3053
ag1
(I255
I255
I255
I255
tp3054
Rp3055
ag1
(I255
I255
I255
I255
tp3056
Rp3057
ag1
(I255
I255
I255
I255
tp3058
Rp3059
ag1
(I255
I255
I255
I255
tp3060
Rp3061
ag1
(I255
I255
I255
I255
tp3062
Rp3063
ag1
(I255
I255
I255
I255
tp3064
Rp3065
ag1
(I255
I255
I255
I255
tp3066
Rp3067
ag1
(I255
I255
I255
I255
tp3068
Rp3069
ag1
(I255
I255
I255
I255
tp3070
Rp3071
ag1
(I255
I255
I255
I255
tp3072
Rp3073
ag1
(I255
I255
I255
I255
tp3074
Rp3075
ag1
(I255
I255
I255
I255
tp3076
Rp3077
ag1
(I255
I255
I255
I255
tp3078
Rp3079
ag1
(I255
I255
I255
I255
tp3080
Rp3081
ag1
(I255
I255
I255
I255
tp3082
Rp3083
ag1
(I255
I255
I255
I255
tp3084
Rp3085
ag1
(I255
I255
I255
I255
tp3086
Rp3087
ag1
(I255
I255
I255
I255
tp3088
Rp3089
ag1
(I255
I255
I255
I255
tp3090
Rp3091
ag1
(I255
I255
I255
I255
tp3092
Rp3093
ag1
(I255
I255
I255
I255
tp3094
Rp3095
ag1
(I255
I255
I255
I255
tp3096
Rp3097
ag1
(I255
I255
I255
I255
tp3098
Rp3099
ag1
(I255
I255
I255
I255
tp3100
Rp3101
ag1
(I255
I255
I255
I255
tp3102
Rp3103
ag1
(I255
I255
I255
I255
tp3104
Rp3105
ag1
(I255
I255
I255
I255
tp3106
Rp3107
ag1
(I255
I255
I255
I255
tp3108
Rp3109
ag1
(I255
I255
I255
I255
tp3110
Rp3111
ag1
(I255
I255
I255
I255
tp3112
Rp3113
ag1
(I255
I255
I255
I255
tp3114
Rp3115
ag1
(I255
I255
I255
I255
tp3116
Rp3117
ag1
(I255
I255
I255
I255
tp3118
Rp3119
ag1
(I255
I255
I255
I255
tp3120
Rp3121
ag1
(I255
I255
I255
I255
tp3122
Rp3123
ag1
(I255
I255
I255
I255
tp3124
Rp3125
ag1
(I255
I255
I255
I255
tp3126
Rp3127
ag1
(I255
I255
I255
I255
tp3128
Rp3129
ag1
(I255
I255
I255
I255
tp3130
Rp3131
ag1
(I255
I255
I255
I255
tp3132
Rp3133
ag1
(I255
I255
I255
I255
tp3134
Rp3135
ag1
(I255
I255
I255
I255
tp3136
Rp3137
ag1
(I255
I255
I255
I255
tp3138
Rp3139
ag1
(I255
I255
I255
I255
tp3140
Rp3141
ag1
(I255
I255
I255
I255
tp3142
Rp3143
ag1
(I255
I255
I255
I255
tp3144
Rp3145
ag1
(I255
I255
I255
I255
tp3146
Rp3147
ag1
(I255
I255
I255
I255
tp3148
Rp3149
ag1
(I255
I255
I255
I255
tp3150
Rp3151
ag1
(I255
I255
I255
I255
tp3152
Rp3153
ag1
(I255
I255
I255
I255
tp3154
Rp3155
ag1
(I255
I255
I255
I255
tp3156
Rp3157
ag1
(I255
I255
I255
I255
tp3158
Rp3159
ag1
(I255
I255
I255
I255
tp3160
Rp3161
ag1
(I255
I255
I255
I255
tp3162
Rp3163
ag1
(I255
I255
I255
I255
tp3164
Rp3165
ag1
(I255
I255
I255
I255
tp3166
Rp3167
ag1
(I255
I255
I255
I255
tp3168
Rp3169
ag1
(I255
I255
I255
I255
tp3170
Rp3171
ag1
(I255
I255
I255
I255
tp3172
Rp3173
ag1
(I255
I255
I255
I255
tp3174
Rp3175
ag1
(I255
I255
I255
I255
tp3176
Rp3177
ag1
(I255
I255
I255
I255
tp3178
Rp3179
ag1
(I255
I255
I255
I255
tp3180
Rp3181
ag1
(I255
I255
I255
I255
tp3182
Rp3183
ag1
(I255
I255
I255
I255
tp3184
Rp3185
ag1
(I255
I255
I255
I255
tp3186
Rp3187
ag1
(I255
I255
I255
I255
tp3188
Rp3189
ag1
(I255
I255
I255
I255
tp3190
Rp3191
ag1
(I255
I255
I255
I255
tp3192
Rp3193
ag1
(I255
I255
I255
I255
tp3194
Rp3195
ag1
(I255
I255
I255
I255
tp3196
Rp3197
ag1
(I255
I255
I255
I255
tp3198
Rp3199
ag1
(I255
I255
I255
I255
tp3200
Rp3201
ag1
(I255
I255
I255
I255
tp3202
Rp3203
ag1
(I255
I255
I255
I255
tp3204
Rp3205
ag1
(I255
I255
I255
I255
tp3206
Rp3207
ag1
(I255
I255
I255
I255
tp3208
Rp3209
ag1
(I255
I255
I255
I255
tp3210
Rp3211
ag1
(I255
I255
I255
I255
tp3212
Rp3213
ag1
(I255
I255
I255
I255
tp3214
Rp3215
ag1
(I255
I255
I255
I255
tp3216
Rp3217
ag1
(I255
I255
I255
I255
tp3218
Rp3219
ag1
(I255
I255
I255
I255
tp3220
Rp3221
ag1
(I255
I255
I255
I255
tp3222
Rp3223
ag1
(I255
I255
I255
I255
tp3224
Rp3225
ag1
(I255
I255
I255
I255
tp3226
Rp3227
ag1
(I255
I255
I255
I255
tp3228
Rp3229
ag1
(I255
I255
I255
I255
tp3230
Rp3231
ag1
(I255
I255
I255
I255
tp3232
Rp3233
ag1
(I255
I255
I255
I255
tp3234
Rp3235
ag1
(I255
I255
I255
I255
tp3236
Rp3237
ag1
(I255
I255
I255
I255
tp3238
Rp3239
ag1
(I255
I255
I255
I255
tp3240
Rp3241
ag1
(I255
I255
I255
I255
tp3242
Rp3243
ag1
(I255
I255
I255
I255
tp3244
Rp3245
ag1
(I255
I255
I255
I255
tp3246
Rp3247
ag1
(I255
I255
I255
I255
tp3248
Rp3249
ag1
(I255
I255
I255
I255
tp3250
Rp3251
ag1
(I255
I255
I255
I255
tp3252
Rp3253
ag1
(I255
I255
I255
I255
tp3254
Rp3255
ag1
(I255
I255
I255
I255
tp3256
Rp3257
ag1
(I255
I255
I255
I255
tp3258
Rp3259
ag1
(I255
I255
I255
I255
tp3260
Rp3261
ag1
(I255
I255
I255
I255
tp3262
Rp3263
ag1
(I255
I255
I255
I255
tp3264
Rp3265
ag1
(I255
I255
I255
I255
tp3266
Rp3267
ag1
(I255
I255
I255
I255
tp3268
Rp3269
ag1
(I255
I255
I255
I255
tp3270
Rp3271
ag1
(I255
I255
I255
I255
tp3272
Rp3273
ag1
(I255
I255
I255
I255
tp3274
Rp3275
ag1
(I255
I255
I255
I255
tp3276
Rp3277
ag1
(I255
I255
I255
I255
tp3278
Rp3279
ag1
(I255
I255
I255
I255
tp3280
Rp3281
ag1
(I255
I255
I255
I255
tp3282
Rp3283
ag1
(I255
I255
I255
I255
tp3284
Rp3285
ag1
(I255
I255
I255
I255
tp3286
Rp3287
ag1
(I255
I255
I255
I255
tp3288
Rp3289
ag1
(I255
I255
I255
I255
tp3290
Rp3291
ag1
(I255
I255
I255
I255
tp3292
Rp3293
ag1
(I255
I255
I255
I255
tp3294
Rp3295
ag1
(I255
I255
I255
I255
tp3296
Rp3297
ag1
(I255
I255
I255
I255
tp3298
Rp3299
ag1
(I255
I255
I255
I255
tp3300
Rp3301
ag1
(I255
I255
I255
I255
tp3302
Rp3303
ag1
(I255
I255
I255
I255
tp3304
Rp3305
ag1
(I255
I255
I255
I255
tp3306
Rp3307
ag1
(I255
I255
I255
I255
tp3308
Rp3309
ag1
(I255
I255
I255
I255
tp3310
Rp3311
ag1
(I255
I255
I255
I255
tp3312
Rp3313
ag1
(I255
I255
I255
I255
tp3314
Rp3315
ag1
(I255
I255
I255
I255
tp3316
Rp3317
ag1
(I255
I255
I255
I255
tp3318
Rp3319
ag1
(I255
I255
I255
I255
tp3320
Rp3321
ag1
(I255
I255
I255
I255
tp3322
Rp3323
ag1
(I255
I255
I255
I255
tp3324
Rp3325
ag1
(I255
I255
I255
I255
tp3326
Rp3327
ag1
(I255
I255
I255
I255
tp3328
Rp3329
ag1
(I255
I255
I255
I255
tp3330
Rp3331
ag1
(I255
I255
I255
I255
tp3332
Rp3333
ag1
(I255
I255
I255
I255
tp3334
Rp3335
ag1
(I255
I255
I255
I255
tp3336
Rp3337
ag1
(I255
I255
I255
I255
tp3338
Rp3339
ag1
(I255
I255
I255
I255
tp3340
Rp3341
ag1
(I255
I255
I255
I255
tp3342
Rp3343
ag1
(I255
I255
I255
I255
tp3344
Rp3345
ag1
(I255
I255
I255
I255
tp3346
Rp3347
ag1
(I255
I255
I255
I255
tp3348
Rp3349
ag1
(I255
I255
I255
I255
tp3350
Rp3351
ag1
(I255
I255
I255
I255
tp3352
Rp3353
ag1
(I255
I255
I255
I255
tp3354
Rp3355
ag1
(I255
I255
I255
I255
tp3356
Rp3357
ag1
(I255
I255
I255
I255
tp3358
Rp3359
ag1
(I255
I255
I255
I255
tp3360
Rp3361
ag1
(I255
I255
I255
I255
tp3362
Rp3363
ag1
(I255
I255
I255
I255
tp3364
Rp3365
ag1
(I255
I255
I255
I255
tp3366
Rp3367
ag1
(I255
I255
I255
I255
tp3368
Rp3369
ag1
(I255
I255
I255
I255
tp3370
Rp3371
ag1
(I255
I255
I255
I255
tp3372
Rp3373
ag1
(I255
I255
I255
I255
tp3374
Rp3375
ag1
(I255
I255
I255
I255
tp3376
Rp3377
ag1
(I255
I255
I255
I255
tp3378
Rp3379
ag1
(I255
I255
I255
I255
tp3380
Rp3381
ag1
(I255
I255
I255
I255
tp3382
Rp3383
ag1
(I255
I255
I255
I255
tp3384
Rp3385
ag1
(I255
I255
I255
I255
tp3386
Rp3387
ag1
(I255
I255
I255
I255
tp3388
Rp3389
ag1
(I255
I255
I255
I255
tp3390
Rp3391
ag1
(I255
I255
I255
I255
tp3392
Rp3393
ag1
(I255
I255
I255
I255
tp3394
Rp3395
ag1
(I255
I255
I255
I255
tp3396
Rp3397
ag1
(I255
I255
I255
I255
tp3398
Rp3399
ag1
(I255
I255
I255
I255
tp3400
Rp3401
ag1
(I255
I255
I255
I255
tp3402
Rp3403
ag1
(I255
I255
I255
I255
tp3404
Rp3405
ag1
(I255
I255
I255
I255
tp3406
Rp3407
ag1
(I255
I255
I255
I255
tp3408
Rp3409
ag1
(I255
I255
I255
I255
tp3410
Rp3411
ag1
(I255
I255
I255
I255
tp3412
Rp3413
ag1
(I255
I255
I255
I255
tp3414
Rp3415
ag1
(I255
I255
I255
I255
tp3416
Rp3417
ag1
(I255
I255
I255
I255
tp3418
Rp3419
ag1
(I255
I255
I255
I255
tp3420
Rp3421
ag1
(I255
I255
I255
I255
tp3422
Rp3423
ag1
(I255
I255
I255
I255
tp3424
Rp3425
ag1
(I255
I255
I255
I255
tp3426
Rp3427
ag1
(I255
I255
I255
I255
tp3428
Rp3429
ag1
(I255
I255
I255
I255
tp3430
Rp3431
ag1
(I255
I255
I255
I255
tp3432
Rp3433
ag1
(I255
I255
I255
I255
tp3434
Rp3435
ag1
(I255
I255
I255
I255
tp3436
Rp3437
ag1
(I255
I255
I255
I255
tp3438
Rp3439
ag1
(I255
I255
I255
I255
tp3440
Rp3441
ag1
(I255
I255
I255
I255
tp3442
Rp3443
ag1
(I255
I255
I255
I255
tp3444
Rp3445
ag1
(I255
I255
I255
I255
tp3446
Rp3447
ag1
(I255
I255
I255
I255
tp3448
Rp3449
ag1
(I255
I255
I255
I255
tp3450
Rp3451
ag1
(I255
I255
I255
I255
tp3452
Rp3453
ag1
(I255
I255
I255
I255
tp3454
Rp3455
ag1
(I255
I255
I255
I255
tp3456
Rp3457
ag1
(I255
I255
I255
I255
tp3458
Rp3459
ag1
(I255
I255
I255
I255
tp3460
Rp3461
ag1
(I255
I255
I255
I255
tp3462
Rp3463
ag1
(I255
I255
I255
I255
tp3464
Rp3465
ag1
(I255
I255
I255
I255
tp3466
Rp3467
ag1
(I255
I255
I255
I255
tp3468
Rp3469
ag1
(I255
I255
I255
I255
tp3470
Rp3471
ag1
(I255
I255
I255
I255
tp3472
Rp3473
ag1
(I255
I255
I255
I255
tp3474
Rp3475
ag1
(I255
I255
I255
I255
tp3476
Rp3477
ag1
(I255
I255
I255
I255
tp3478
Rp3479
ag1
(I255
I255
I255
I255
tp3480
Rp3481
ag1
(I255
I255
I255
I255
tp3482
Rp3483
ag1
(I255
I255
I255
I255
tp3484
Rp3485
ag1
(I255
I255
I255
I255
tp3486
Rp3487
ag1
(I255
I255
I255
I255
tp3488
Rp3489
ag1
(I255
I255
I255
I255
tp3490
Rp3491
ag1
(I255
I255
I255
I255
tp3492
Rp3493
ag1
(I255
I255
I255
I255
tp3494
Rp3495
ag1
(I255
I255
I255
I255
tp3496
Rp3497
ag1
(I255
I255
I255
I255
tp3498
Rp3499
ag1
(I255
I255
I255
I255
tp3500
Rp3501
ag1
(I255
I255
I255
I255
tp3502
Rp3503
ag1
(I255
I255
I255
I255
tp3504
Rp3505
ag1
(I255
I255
I255
I255
tp3506
Rp3507
ag1
(I255
I255
I255
I255
tp3508
Rp3509
ag1
(I255
I255
I255
I255
tp3510
Rp3511
ag1
(I255
I255
I255
I255
tp3512
Rp3513
ag1
(I255
I255
I255
I255
tp3514
Rp3515
ag1
(I255
I255
I255
I255
tp3516
Rp3517
ag1
(I255
I255
I255
I255
tp3518
Rp3519
ag1
(I255
I255
I255
I255
tp3520
Rp3521
ag1
(I255
I255
I255
I255
tp3522
Rp3523
ag1
(I255
I255
I255
I255
tp3524
Rp3525
ag1
(I255
I255
I255
I255
tp3526
Rp3527
ag1
(I255
I255
I255
I255
tp3528
Rp3529
ag1
(I255
I255
I255
I255
tp3530
Rp3531
ag1
(I255
I255
I255
I255
tp3532
Rp3533
ag1
(I255
I255
I255
I255
tp3534
Rp3535
ag1
(I255
I255
I255
I255
tp3536
Rp3537
ag1
(I255
I255
I255
I255
tp3538
Rp3539
ag1
(I255
I255
I255
I255
tp3540
Rp3541
ag1
(I255
I255
I255
I255
tp3542
Rp3543
ag1
(I255
I255
I255
I255
tp3544
Rp3545
ag1
(I255
I255
I255
I255
tp3546
Rp3547
ag1
(I255
I255
I255
I255
tp3548
Rp3549
ag1
(I255
I255
I255
I255
tp3550
Rp3551
ag1
(I255
I255
I255
I255
tp3552
Rp3553
ag1
(I255
I255
I255
I255
tp3554
Rp3555
ag1
(I255
I255
I255
I255
tp3556
Rp3557
ag1
(I255
I255
I255
I255
tp3558
Rp3559
ag1
(I255
I255
I255
I255
tp3560
Rp3561
ag1
(I255
I255
I255
I255
tp3562
Rp3563
ag1
(I255
I255
I255
I255
tp3564
Rp3565
ag1
(I255
I255
I255
I255
tp3566
Rp3567
ag1
(I255
I255
I255
I255
tp3568
Rp3569
ag1
(I255
I255
I255
I255
tp3570
Rp3571
ag1
(I255
I255
I255
I255
tp3572
Rp3573
ag1
(I255
I255
I255
I255
tp3574
Rp3575
ag1
(I255
I255
I255
I255
tp3576
Rp3577
ag1
(I255
I255
I255
I255
tp3578
Rp3579
ag1
(I255
I255
I255
I255
tp3580
Rp3581
ag1
(I255
I255
I255
I255
tp3582
Rp3583
ag1
(I255
I255
I255
I255
tp3584
Rp3585
ag1
(I255
I255
I255
I255
tp3586
Rp3587
ag1
(I255
I255
I255
I255
tp3588
Rp3589
ag1
(I255
I255
I255
I255
tp3590
Rp3591
ag1
(I255
I255
I255
I255
tp3592
Rp3593
ag1
(I255
I255
I255
I255
tp3594
Rp3595
ag1
(I255
I255
I255
I255
tp3596
Rp3597
ag1
(I255
I255
I255
I255
tp3598
Rp3599
ag1
(I255
I255
I255
I255
tp3600
Rp3601
ag1
(I255
I255
I255
I255
tp3602
Rp3603
ag1
(I255
I255
I255
I255
tp3604
Rp3605
ag1
(I255
I255
I255
I255
tp3606
Rp3607
ag1
(I255
I255
I255
I255
tp3608
Rp3609
ag1
(I255
I255
I255
I255
tp3610
Rp3611
ag1
(I255
I255
I255
I255
tp3612
Rp3613
ag1
(I255
I255
I255
I255
tp3614
Rp3615
ag1
(I255
I255
I255
I255
tp3616
Rp3617
ag1
(I255
I255
I255
I255
tp3618
Rp3619
ag1
(I255
I255
I255
I255
tp3620
Rp3621
ag1
(I255
I255
I255
I255
tp3622
Rp3623
ag1
(I255
I255
I255
I255
tp3624
Rp3625
ag1
(I255
I255
I255
I255
tp3626
Rp3627
ag1
(I255
I255
I255
I255
tp3628
Rp3629
ag1
(I255
I255
I255
I255
tp3630
Rp3631
ag1
(I255
I255
I255
I255
tp3632
Rp3633
ag1
(I255
I255
I255
I255
tp3634
Rp3635
ag1
(I255
I255
I255
I255
tp3636
Rp3637
ag1
(I255
I255
I255
I255
tp3638
Rp3639
ag1
(I255
I255
I255
I255
tp3640
Rp3641
ag1
(I255
I255
I255
I255
tp3642
Rp3643
ag1
(I255
I255
I255
I255
tp3644
Rp3645
ag1
(I255
I255
I255
I255
tp3646
Rp3647
ag1
(I255
I255
I255
I255
tp3648
Rp3649
ag1
(I255
I255
I255
I255
tp3650
Rp3651
ag1
(I255
I255
I255
I255
tp3652
Rp3653
ag1
(I255
I255
I255
I255
tp3654
Rp3655
ag1
(I255
I255
I255
I255
tp3656
Rp3657
ag1
(I255
I255
I255
I255
tp3658
Rp3659
ag1
(I255
I255
I255
I255
tp3660
Rp3661
ag1
(I255
I255
I255
I255
tp3662
Rp3663
ag1
(I255
I255
I255
I255
tp3664
Rp3665
ag1
(I255
I255
I255
I255
tp3666
Rp3667
ag1
(I255
I255
I255
I255
tp3668
Rp3669
ag1
(I255
I255
I255
I255
tp3670
Rp3671
ag1
(I255
I255
I255
I255
tp3672
Rp3673
ag1
(I255
I255
I255
I255
tp3674
Rp3675
ag1
(I255
I255
I255
I255
tp3676
Rp3677
ag1
(I255
I255
I255
I255
tp3678
Rp3679
ag1
(I255
I255
I255
I255
tp3680
Rp3681
ag1
(I255
I255
I255
I255
tp3682
Rp3683
ag1
(I255
I255
I255
I255
tp3684
Rp3685
ag1
(I255
I255
I255
I255
tp3686
Rp3687
ag1
(I255
I255
I255
I255
tp3688
Rp3689
ag1
(I255
I255
I255
I255
tp3690
Rp3691
ag1
(I255
I255
I255
I255
tp3692
Rp3693
ag1
(I255
I255
I255
I255
tp3694
Rp3695
ag1
(I255
I255
I255
I255
tp3696
Rp3697
ag1
(I255
I255
I255
I255
tp3698
Rp3699
ag1
(I255
I255
I255
I255
tp3700
Rp3701
ag1
(I255
I255
I255
I255
tp3702
Rp3703
ag1
(I255
I255
I255
I255
tp3704
Rp3705
ag1
(I255
I255
I255
I255
tp3706
Rp3707
ag1
(I255
I255
I255
I255
tp3708
Rp3709
ag1
(I255
I255
I255
I255
tp3710
Rp3711
ag1
(I255
I255
I255
I255
tp3712
Rp3713
ag1
(I255
I255
I255
I255
tp3714
Rp3715
ag1
(I255
I255
I255
I255
tp3716
Rp3717
ag1
(I255
I255
I255
I255
tp3718
Rp3719
ag1
(I255
I255
I255
I255
tp3720
Rp3721
ag1
(I255
I255
I255
I255
tp3722
Rp3723
ag1
(I255
I255
I255
I255
tp3724
Rp3725
ag1
(I255
I255
I255
I255
tp3726
Rp3727
ag1
(I255
I255
I255
I255
tp3728
Rp3729
ag1
(I255
I255
I255
I255
tp3730
Rp3731
ag1
(I255
I255
I255
I255
tp3732
Rp3733
ag1
(I255
I255
I255
I255
tp3734
Rp3735
ag1
(I255
I255
I255
I255
tp3736
Rp3737
ag1
(I255
I255
I255
I255
tp3738
Rp3739
ag1
(I255
I255
I255
I255
tp3740
Rp3741
ag1
(I255
I255
I255
I255
tp3742
Rp3743
ag1
(I255
I255
I255
I255
tp3744
Rp3745
ag1
(I255
I255
I255
I255
tp3746
Rp3747
ag1
(I255
I255
I255
I255
tp3748
Rp3749
ag1
(I255
I255
I255
I255
tp3750
Rp3751
ag1
(I255
I255
I255
I255
tp3752
Rp3753
ag1
(I255
I255
I255
I255
tp3754
Rp3755
ag1
(I255
I255
I255
I255
tp3756
Rp3757
ag1
(I255
I255
I255
I255
tp3758
Rp3759
ag1
(I255
I255
I255
I255
tp3760
Rp3761
ag1
(I255
I255
I255
I255
tp3762
Rp3763
ag1
(I255
I255
I255
I255
tp3764
Rp3765
ag1
(I255
I255
I255
I255
tp3766
Rp3767
ag1
(I255
I255
I255
I255
tp3768
Rp3769
ag1
(I255
I255
I255
I255
tp3770
Rp3771
ag1
(I255
I255
I255
I255
tp3772
Rp3773
ag1
(I255
I255
I255
I255
tp3774
Rp3775
ag1
(I255
I255
I255
I255
tp3776
Rp3777
ag1
(I255
I255
I255
I255
tp3778
Rp3779
ag1
(I255
I255
I255
I255
tp3780
Rp3781
ag1
(I255
I255
I255
I255
tp3782
Rp3783
ag1
(I255
I255
I255
I255
tp3784
Rp3785
ag1
(I255
I255
I255
I255
tp3786
Rp3787
ag1
(I255
I255
I255
I255
tp3788
Rp3789
ag1
(I255
I255
I255
I255
tp3790
Rp3791
ag1
(I255
I255
I255
I255
tp3792
Rp3793
ag1
(I255
I255
I255
I255
tp3794
Rp3795
ag1
(I255
I255
I255
I255
tp3796
Rp3797
ag1
(I255
I255
I255
I255
tp3798
Rp3799
ag1
(I255
I255
I255
I255
tp3800
Rp3801
ag1
(I255
I255
I255
I255
tp3802
Rp3803
ag1
(I255
I255
I255
I255
tp3804
Rp3805
ag1
(I255
I255
I255
I255
tp3806
Rp3807
ag1
(I255
I255
I255
I255
tp3808
Rp3809
ag1
(I255
I255
I255
I255
tp3810
Rp3811
ag1
(I255
I255
I255
I255
tp3812
Rp3813
ag1
(I255
I255
I255
I255
tp3814
Rp3815
ag1
(I255
I255
I255
I255
tp3816
Rp3817
ag1
(I255
I255
I255
I255
tp3818
Rp3819
ag1
(I255
I255
I255
I255
tp3820
Rp3821
ag1
(I255
I255
I255
I255
tp3822
Rp3823
ag1
(I255
I255
I255
I255
tp3824
Rp3825
ag1
(I255
I255
I255
I255
tp3826
Rp3827
ag1
(I255
I255
I255
I255
tp3828
Rp3829
ag1
(I255
I255
I255
I255
tp3830
Rp3831
ag1
(I255
I255
I255
I255
tp3832
Rp3833
ag1
(I255
I255
I255
I255
tp3834
Rp3835
ag1
(I255
I255
I255
I255
tp3836
Rp3837
ag1
(I255
I255
I255
I255
tp3838
Rp3839
ag1
(I255
I255
I255
I255
tp3840
Rp3841
ag1
(I255
I255
I255
I255
tp3842
Rp3843
ag1
(I255
I255
I255
I255
tp3844
Rp3845
ag1
(I255
I255
I255
I255
tp3846
Rp3847
ag1
(I255
I255
I255
I255
tp3848
Rp3849
ag1
(I255
I255
I255
I255
tp3850
Rp3851
ag1
(I255
I255
I255
I255
tp3852
Rp3853
ag1
(I255
I255
I255
I255
tp3854
Rp3855
ag1
(I255
I255
I255
I255
tp3856
Rp3857
ag1
(I255
I255
I255
I255
tp3858
Rp3859
ag1
(I255
I255
I255
I255
tp3860
Rp3861
ag1
(I255
I255
I255
I255
tp3862
Rp3863
ag1
(I255
I255
I255
I255
tp3864
Rp3865
ag1
(I255
I255
I255
I255
tp3866
Rp3867
ag1
(I255
I255
I255
I255
tp3868
Rp3869
ag1
(I255
I255
I255
I255
tp3870
Rp3871
ag1
(I255
I255
I255
I255
tp3872
Rp3873
ag1
(I255
I255
I255
I255
tp3874
Rp3875
ag1
(I255
I255
I255
I255
tp3876
Rp3877
ag1
(I255
I255
I255
I255
tp3878
Rp3879
ag1
(I255
I255
I255
I255
tp3880
Rp3881
ag1
(I255
I255
I255
I255
tp3882
Rp3883
ag1
(I255
I255
I255
I255
tp3884
Rp3885
ag1
(I255
I255
I255
I255
tp3886
Rp3887
ag1
(I255
I255
I255
I255
tp3888
Rp3889
ag1
(I255
I255
I255
I255
tp3890
Rp3891
ag1
(I255
I255
I255
I255
tp3892
Rp3893
ag1
(I255
I255
I255
I255
tp3894
Rp3895
ag1
(I255
I255
I255
I255
tp3896
Rp3897
ag1
(I255
I255
I255
I255
tp3898
Rp3899
ag1
(I255
I255
I255
I255
tp3900
Rp3901
ag1
(I255
I255
I255
I255
tp3902
Rp3903
ag1
(I255
I255
I255
I255
tp3904
Rp3905
ag1
(I255
I255
I255
I255
tp3906
Rp3907
ag1
(I255
I255
I255
I255
tp3908
Rp3909
ag1
(I255
I255
I255
I255
tp3910
Rp3911
ag1
(I255
I255
I255
I255
tp3912
Rp3913
ag1
(I255
I255
I255
I255
tp3914
Rp3915
ag1
(I255
I255
I255
I255
tp3916
Rp3917
ag1
(I255
I255
I255
I255
tp3918
Rp3919
ag1
(I255
I255
I255
I255
tp3920
Rp3921
ag1
(I255
I255
I255
I255
tp3922
Rp3923
ag1
(I255
I255
I255
I255
tp3924
Rp3925
ag1
(I255
I255
I255
I255
tp3926
Rp3927
ag1
(I255
I255
I255
I255
tp3928
Rp3929
ag1
(I255
I255
I255
I255
tp3930
Rp3931
ag1
(I255
I255
I255
I255
tp3932
Rp3933
ag1
(I255
I255
I255
I255
tp3934
Rp3935
ag1
(I255
I255
I255
I255
tp3936
Rp3937
ag1
(I255
I255
I255
I255
tp3938
Rp3939
ag1
(I255
I255
I255
I255
tp3940
Rp3941
ag1
(I255
I255
I255
I255
tp3942
Rp3943
ag1
(I255
I255
I255
I255
tp3944
Rp3945
ag1
(I255
I255
I255
I255
tp3946
Rp3947
ag1
(I255
I255
I255
I255
tp3948
Rp3949
ag1
(I255
I255
I255
I255
tp3950
Rp3951
ag1
(I255
I255
I255
I255
tp3952
Rp3953
ag1
(I255
I255
I255
I255
tp3954
Rp3955
ag1
(I255
I255
I255
I255
tp3956
Rp3957
ag1
(I255
I255
I255
I255
tp3958
Rp3959
ag1
(I255
I255
I255
I255
tp3960
Rp3961
ag1
(I255
I255
I255
I255
tp3962
Rp3963
ag1
(I255
I255
I255
I255
tp3964
Rp3965
ag1
(I255
I255
I255
I255
tp3966
Rp3967
ag1
(I255
I255
I255
I255
tp3968
Rp3969
ag1
(I255
I255
I255
I255
tp3970
Rp3971
ag1
(I255
I255
I255
I255
tp3972
Rp3973
ag1
(I255
I255
I255
I255
tp3974
Rp3975
ag1
(I255
I255
I255
I255
tp3976
Rp3977
ag1
(I255
I255
I255
I255
tp3978
Rp3979
ag1
(I255
I255
I255
I255
tp3980
Rp3981
ag1
(I255
I255
I255
I255
tp3982
Rp3983
ag1
(I255
I255
I255
I255
tp3984
Rp3985
ag1
(I255
I255
I255
I255
tp3986
Rp3987
ag1
(I255
I255
I255
I255
tp3988
Rp3989
ag1
(I255
I255
I255
I255
tp3990
Rp3991
ag1
(I255
I255
I255
I255
tp3992
Rp3993
ag1
(I255
I255
I255
I255
tp3994
Rp3995
ag1
(I255
I255
I255
I255
tp3996
Rp3997
ag1
(I255
I255
I255
I255
tp3998
Rp3999
ag1
(I255
I255
I255
I255
tp4000
Rp4001
ag1
(I255
I255
I255
I255
tp4002
Rp4003
ag1
(I255
I255
I255
I255
tp4004
Rp4005
ag1
(I255
I255
I255
I255
tp4006
Rp4007
ag1
(I255
I255
I255
I255
tp4008
Rp4009
ag1
(I255
I255
I255
I255
tp4010
Rp4011
ag1
(I255
I255
I255
I255
tp4012
Rp4013
ag1
(I255
I255
I255
I255
tp4014
Rp4015
ag1
(I255
I255
I255
I255
tp4016
Rp4017
ag1
(I255
I255
I255
I255
tp4018
Rp4019
ag1
(I255
I255
I255
I255
tp4020
Rp4021
ag1
(I255
I255
I255
I255
tp4022
Rp4023
ag1
(I255
I255
I255
I255
tp4024
Rp4025
ag1
(I255
I255
I255
I255
tp4026
Rp4027
ag1
(I255
I255
I255
I255
tp4028
Rp4029
ag1
(I255
I255
I255
I255
tp4030
Rp4031
ag1
(I255
I255
I255
I255
tp4032
Rp4033
ag1
(I255
I255
I255
I255
tp4034
Rp4035
ag1
(I255
I255
I255
I255
tp4036
Rp4037
ag1
(I255
I255
I255
I255
tp4038
Rp4039
ag1
(I255
I255
I255
I255
tp4040
Rp4041
ag1
(I255
I255
I255
I255
tp4042
Rp4043
ag1
(I255
I255
I255
I255
tp4044
Rp4045
ag1
(I255
I255
I255
I255
tp4046
Rp4047
ag1
(I255
I255
I255
I255
tp4048
Rp4049
ag1
(I255
I255
I255
I255
tp4050
Rp4051
ag1
(I255
I255
I255
I255
tp4052
Rp4053
ag1
(I255
I255
I255
I255
tp4054
Rp4055
ag1
(I255
I255
I255
I255
tp4056
Rp4057
ag1
(I255
I255
I255
I255
tp4058
Rp4059
ag1
(I255
I255
I255
I255
tp4060
Rp4061
ag1
(I255
I255
I255
I255
tp4062
Rp4063
ag1
(I255
I255
I255
I255
tp4064
Rp4065
ag1
(I255
I255
I255
I255
tp4066
Rp4067
ag1
(I255
I255
I255
I255
tp4068
Rp4069
ag1
(I255
I255
I255
I255
tp4070
Rp4071
ag1
(I255
I255
I255
I255
tp4072
Rp4073
ag1
(I255
I255
I255
I255
tp4074
Rp4075
ag1
(I255
I255
I255
I255
tp4076
Rp4077
ag1
(I255
I255
I255
I255
tp4078
Rp4079
ag1
(I255
I255
I255
I255
tp4080
Rp4081
ag1
(I255
I255
I255
I255
tp4082
Rp4083
ag1
(I255
I255
I255
I255
tp4084
Rp4085
ag1
(I255
I255
I255
I255
tp4086
Rp4087
ag1
(I255
I255
I255
I255
tp4088
Rp4089
ag1
(I255
I255
I255
I255
tp4090
Rp4091
ag1
(I255
I255
I255
I255
tp4092
Rp4093
ag1
(I255
I255
I255
I255
tp4094
Rp4095
ag1
(I255
I255
I255
I255
tp4096
Rp4097
ag1
(I255
I255
I255
I255
tp4098
Rp4099
ag1
(I255
I255
I255
I255
tp4100
Rp4101
ag1
(I255
I255
I255
I255
tp4102
Rp4103
ag1
(I255
I255
I255
I255
tp4104
Rp4105
ag1
(I255
I255
I255
I255
tp4106
Rp4107
ag1
(I255
I255
I255
I255
tp4108
Rp4109
ag1
(I255
I255
I255
I255
tp4110
Rp4111
ag1
(I255
I255
I255
I255
tp4112
Rp4113
ag1
(I255
I255
I255
I255
tp4114
Rp4115
ag1
(I255
I255
I255
I255
tp4116
Rp4117
ag1
(I255
I255
I255
I255
tp4118
Rp4119
ag1
(I255
I255
I255
I255
tp4120
Rp4121
ag1
(I255
I255
I255
I255
tp4122
Rp4123
ag1
(I255
I255
I255
I255
tp4124
Rp4125
ag1
(I255
I255
I255
I255
tp4126
Rp4127
ag1
(I255
I255
I255
I255
tp4128
Rp4129
ag1
(I255
I255
I255
I255
tp4130
Rp4131
ag1
(I255
I255
I255
I255
tp4132
Rp4133
ag1
(I255
I255
I255
I255
tp4134
Rp4135
ag1
(I255
I255
I255
I255
tp4136
Rp4137
ag1
(I255
I255
I255
I255
tp4138
Rp4139
ag1
(I255
I255
I255
I255
tp4140
Rp4141
ag1
(I255
I255
I255
I255
tp4142
Rp4143
ag1
(I255
I255
I255
I255
tp4144
Rp4145
ag1
(I255
I255
I255
I255
tp4146
Rp4147
ag1
(I255
I255
I255
I255
tp4148
Rp4149
ag1
(I255
I255
I255
I255
tp4150
Rp4151
ag1
(I255
I255
I255
I255
tp4152
Rp4153
ag1
(I255
I255
I255
I255
tp4154
Rp4155
ag1
(I255
I255
I255
I255
tp4156
Rp4157
ag1
(I255
I255
I255
I255
tp4158
Rp4159
ag1
(I255
I255
I255
I255
tp4160
Rp4161
ag1
(I255
I255
I255
I255
tp4162
Rp4163
ag1
(I255
I255
I255
I255
tp4164
Rp4165
ag1
(I255
I255
I255
I255
tp4166
Rp4167
ag1
(I255
I255
I255
I255
tp4168
Rp4169
ag1
(I255
I255
I255
I255
tp4170
Rp4171
ag1
(I255
I255
I255
I255
tp4172
Rp4173
ag1
(I255
I255
I255
I255
tp4174
Rp4175
ag1
(I255
I255
I255
I255
tp4176
Rp4177
ag1
(I255
I255
I255
I255
tp4178
Rp4179
ag1
(I255
I255
I255
I255
tp4180
Rp4181
ag1
(I255
I255
I255
I255
tp4182
Rp4183
ag1
(I255
I255
I255
I255
tp4184
Rp4185
ag1
(I255
I255
I255
I255
tp4186
Rp4187
ag1
(I255
I255
I255
I255
tp4188
Rp4189
ag1
(I255
I255
I255
I255
tp4190
Rp4191
ag1
(I255
I255
I255
I255
tp4192
Rp4193
ag1
(I255
I255
I255
I255
tp4194
Rp4195
ag1
(I255
I255
I255
I255
tp4196
Rp4197
ag1
(I255
I255
I255
I255
tp4198
Rp4199
ag1
(I255
I255
I255
I255
tp4200
Rp4201
ag1
(I255
I255
I255
I255
tp4202
Rp4203
ag1
(I255
I255
I255
I255
tp4204
Rp4205
ag1
(I255
I255
I255
I255
tp4206
Rp4207
ag1
(I255
I255
I255
I255
tp4208
Rp4209
ag1
(I255
I255
I255
I255
tp4210
Rp4211
ag1
(I255
I255
I255
I255
tp4212
Rp4213
ag1
(I255
I255
I255
I255
tp4214
Rp4215
ag1
(I255
I255
I255
I255
tp4216
Rp4217
ag1
(I255
I255
I255
I255
tp4218
Rp4219
ag1
(I255
I255
I255
I255
tp4220
Rp4221
ag1
(I255
I255
I255
I255
tp4222
Rp4223
ag1
(I255
I255
I255
I255
tp4224
Rp4225
ag1
(I255
I255
I255
I255
tp4226
Rp4227
ag1
(I255
I255
I255
I255
tp4228
Rp4229
ag1
(I255
I255
I255
I255
tp4230
Rp4231
ag1
(I255
I255
I255
I255
tp4232
Rp4233
ag1
(I255
I255
I255
I255
tp4234
Rp4235
ag1
(I255
I255
I255
I255
tp4236
Rp4237
ag1
(I255
I255
I255
I255
tp4238
Rp4239
ag1
(I255
I255
I255
I255
tp4240
Rp4241
ag1
(I255
I255
I255
I255
tp4242
Rp4243
ag1
(I255
I255
I255
I255
tp4244
Rp4245
ag1
(I255
I255
I255
I255
tp4246
Rp4247
ag1
(I255
I255
I255
I255
tp4248
Rp4249
ag1
(I255
I255
I255
I255
tp4250
Rp4251
ag1
(I255
I255
I255
I255
tp4252
Rp4253
ag1
(I255
I255
I255
I255
tp4254
Rp4255
ag1
(I255
I255
I255
I255
tp4256
Rp4257
ag1
(I255
I255
I255
I255
tp4258
Rp4259
ag1
(I255
I255
I255
I255
tp4260
Rp4261
ag1
(I255
I255
I255
I255
tp4262
Rp4263
ag1
(I255
I255
I255
I255
tp4264
Rp4265
ag1
(I255
I255
I255
I255
tp4266
Rp4267
ag1
(I255
I255
I255
I255
tp4268
Rp4269
ag1
(I255
I255
I255
I255
tp4270
Rp4271
ag1
(I255
I255
I255
I255
tp4272
Rp4273
ag1
(I255
I255
I255
I255
tp4274
Rp4275
ag1
(I255
I255
I255
I255
tp4276
Rp4277
ag1
(I255
I255
I255
I255
tp4278
Rp4279
ag1
(I255
I255
I255
I255
tp4280
Rp4281
ag1
(I255
I255
I255
I255
tp4282
Rp4283
ag1
(I255
I255
I255
I255
tp4284
Rp4285
ag1
(I255
I255
I255
I255
tp4286
Rp4287
ag1
(I255
I255
I255
I255
tp4288
Rp4289
ag1
(I255
I255
I255
I255
tp4290
Rp4291
ag1
(I255
I255
I255
I255
tp4292
Rp4293
ag1
(I255
I255
I255
I255
tp4294
Rp4295
ag1
(I255
I255
I255
I255
tp4296
Rp4297
ag1
(I255
I255
I255
I255
tp4298
Rp4299
ag1
(I255
I255
I255
I255
tp4300
Rp4301
ag1
(I255
I255
I255
I255
tp4302
Rp4303
ag1
(I255
I255
I255
I255
tp4304
Rp4305
ag1
(I255
I255
I255
I255
tp4306
Rp4307
ag1
(I255
I255
I255
I255
tp4308
Rp4309
ag1
(I255
I255
I255
I255
tp4310
Rp4311
ag1
(I255
I255
I255
I255
tp4312
Rp4313
ag1
(I255
I255
I255
I255
tp4314
Rp4315
ag1
(I255
I255
I255
I255
tp4316
Rp4317
ag1
(I255
I255
I255
I255
tp4318
Rp4319
ag1
(I255
I255
I255
I255
tp4320
Rp4321
ag1
(I255
I255
I255
I255
tp4322
Rp4323
ag1
(I255
I255
I255
I255
tp4324
Rp4325
ag1
(I255
I255
I255
I255
tp4326
Rp4327
ag1
(I255
I255
I255
I255
tp4328
Rp4329
ag1
(I255
I255
I255
I255
tp4330
Rp4331
ag1
(I255
I255
I255
I255
tp4332
Rp4333
ag1
(I255
I255
I255
I255
tp4334
Rp4335
ag1
(I255
I255
I255
I255
tp4336
Rp4337
ag1
(I255
I255
I255
I255
tp4338
Rp4339
ag1
(I255
I255
I255
I255
tp4340
Rp4341
ag1
(I255
I255
I255
I255
tp4342
Rp4343
ag1
(I255
I255
I255
I255
tp4344
Rp4345
ag1
(I255
I255
I255
I255
tp4346
Rp4347
ag1
(I255
I255
I255
I255
tp4348
Rp4349
ag1
(I255
I255
I255
I255
tp4350
Rp4351
ag1
(I255
I255
I255
I255
tp4352
Rp4353
ag1
(I255
I255
I255
I255
tp4354
Rp4355
ag1
(I255
I255
I255
I255
tp4356
Rp4357
ag1
(I255
I255
I255
I255
tp4358
Rp4359
ag1
(I255
I255
I255
I255
tp4360
Rp4361
ag1
(I255
I255
I255
I255
tp4362
Rp4363
ag1
(I255
I255
I255
I255
tp4364
Rp4365
ag1
(I255
I255
I255
I255
tp4366
Rp4367
ag1
(I255
I255
I255
I255
tp4368
Rp4369
ag1
(I255
I255
I255
I255
tp4370
Rp4371
ag1
(I255
I255
I255
I255
tp4372
Rp4373
ag1
(I255
I255
I255
I255
tp4374
Rp4375
ag1
(I255
I255
I255
I255
tp4376
Rp4377
ag1
(I255
I255
I255
I255
tp4378
Rp4379
ag1
(I255
I255
I255
I255
tp4380
Rp4381
ag1
(I255
I255
I255
I255
tp4382
Rp4383
ag1
(I255
I255
I255
I255
tp4384
Rp4385
ag1
(I255
I255
I255
I255
tp4386
Rp4387
ag1
(I255
I255
I255
I255
tp4388
Rp4389
ag1
(I255
I255
I255
I255
tp4390
Rp4391
ag1
(I255
I255
I255
I255
tp4392
Rp4393
ag1
(I255
I255
I255
I255
tp4394
Rp4395
ag1
(I255
I255
I255
I255
tp4396
Rp4397
ag1
(I255
I255
I255
I255
tp4398
Rp4399
ag1
(I255
I255
I255
I255
tp4400
Rp4401
ag1
(I255
I255
I255
I255
tp4402
Rp4403
ag1
(I255
I255
I255
I255
tp4404
Rp4405
ag1
(I255
I255
I255
I255
tp4406
Rp4407
ag1
(I255
I255
I255
I255
tp4408
Rp4409
ag1
(I255
I255
I255
I255
tp4410
Rp4411
ag1
(I255
I255
I255
I255
tp4412
Rp4413
ag1
(I255
I255
I255
I255
tp4414
Rp4415
ag1
(I255
I255
I255
I255
tp4416
Rp4417
ag1
(I255
I255
I255
I255
tp4418
Rp4419
ag1
(I255
I255
I255
I255
tp4420
Rp4421
ag1
(I255
I255
I255
I255
tp4422
Rp4423
ag1
(I255
I255
I255
I255
tp4424
Rp4425
ag1
(I255
I255
I255
I255
tp4426
Rp4427
ag1
(I255
I255
I255
I255
tp4428
Rp4429
ag1
(I255
I255
I255
I255
tp4430
Rp4431
ag1
(I255
I255
I255
I255
tp4432
Rp4433
ag1
(I255
I255
I255
I255
tp4434
Rp4435
ag1
(I255
I255
I255
I255
tp4436
Rp4437
ag1
(I255
I255
I255
I255
tp4438
Rp4439
ag1
(I255
I255
I255
I255
tp4440
Rp4441
ag1
(I255
I255
I255
I255
tp4442
Rp4443
ag1
(I255
I255
I255
I255
tp4444
Rp4445
ag1
(I255
I255
I255
I255
tp4446
Rp4447
ag1
(I255
I255
I255
I255
tp4448
Rp4449
ag1
(I255
I255
I255
I255
tp4450
Rp4451
ag1
(I255
I255
I255
I255
tp4452
Rp4453
ag1
(I255
I255
I255
I255
tp4454
Rp4455
ag1
(I255
I255
I255
I255
tp4456
Rp4457
ag1
(I255
I255
I255
I255
tp4458
Rp4459
ag1
(I255
I255
I255
I255
tp4460
Rp4461
ag1
(I255
I255
I255
I255
tp4462
Rp4463
ag1
(I255
I255
I255
I255
tp4464
Rp4465
ag1
(I255
I255
I255
I255
tp4466
Rp4467
ag1
(I255
I255
I255
I255
tp4468
Rp4469
ag1
(I255
I255
I255
I255
tp4470
Rp4471
ag1
(I255
I255
I255
I255
tp4472
Rp4473
ag1
(I255
I255
I255
I255
tp4474
Rp4475
ag1
(I255
I255
I255
I255
tp4476
Rp4477
ag1
(I255
I255
I255
I255
tp4478
Rp4479
ag1
(I255
I255
I255
I255
tp4480
Rp4481
ag1
(I255
I255
I255
I255
tp4482
Rp4483
ag1
(I255
I255
I255
I255
tp4484
Rp4485
ag1
(I255
I255
I255
I255
tp4486
Rp4487
ag1
(I255
I255
I255
I255
tp4488
Rp4489
ag1
(I255
I255
I255
I255
tp4490
Rp4491
ag1
(I255
I255
I255
I255
tp4492
Rp4493
ag1
(I255
I255
I255
I255
tp4494
Rp4495
ag1
(I255
I255
I255
I255
tp4496
Rp4497
ag1
(I255
I255
I255
I255
tp4498
Rp4499
ag1
(I255
I255
I255
I255
tp4500
Rp4501
ag1
(I255
I255
I255
I255
tp4502
Rp4503
ag1
(I255
I255
I255
I255
tp4504
Rp4505
ag1
(I255
I255
I255
I255
tp4506
Rp4507
ag1
(I255
I255
I255
I255
tp4508
Rp4509
ag1
(I255
I255
I255
I255
tp4510
Rp4511
ag1
(I255
I255
I255
I255
tp4512
Rp4513
ag1
(I255
I255
I255
I255
tp4514
Rp4515
ag1
(I255
I255
I255
I255
tp4516
Rp4517
ag1
(I255
I255
I255
I255
tp4518
Rp4519
ag1
(I255
I255
I255
I255
tp4520
Rp4521
ag1
(I255
I255
I255
I255
tp4522
Rp4523
ag1
(I255
I255
I255
I255
tp4524
Rp4525
ag1
(I255
I255
I255
I255
tp4526
Rp4527
ag1
(I255
I255
I255
I255
tp4528
Rp4529
ag1
(I255
I255
I255
I255
tp4530
Rp4531
ag1
(I255
I255
I255
I255
tp4532
Rp4533
ag1
(I255
I255
I255
I255
tp4534
Rp4535
ag1
(I255
I255
I255
I255
tp4536
Rp4537
ag1
(I255
I255
I255
I255
tp4538
Rp4539
ag1
(I255
I255
I255
I255
tp4540
Rp4541
ag1
(I255
I255
I255
I255
tp4542
Rp4543
ag1
(I255
I255
I255
I255
tp4544
Rp4545
ag1
(I255
I255
I255
I255
tp4546
Rp4547
ag1
(I255
I255
I255
I255
tp4548
Rp4549
ag1
(I255
I255
I255
I255
tp4550
Rp4551
ag1
(I255
I255
I255
I255
tp4552
Rp4553
ag1
(I255
I255
I255
I255
tp4554
Rp4555
ag1
(I255
I255
I255
I255
tp4556
Rp4557
ag1
(I255
I255
I255
I255
tp4558
Rp4559
ag1
(I255
I255
I255
I255
tp4560
Rp4561
ag1
(I255
I255
I255
I255
tp4562
Rp4563
ag1
(I255
I255
I255
I255
tp4564
Rp4565
ag1
(I255
I255
I255
I255
tp4566
Rp4567
ag1
(I255
I255
I255
I255
tp4568
Rp4569
ag1
(I255
I255
I255
I255
tp4570
Rp4571
ag1
(I255
I255
I255
I255
tp4572
Rp4573
ag1
(I255
I255
I255
I255
tp4574
Rp4575
ag1
(I255
I255
I255
I255
tp4576
Rp4577
ag1
(I255
I255
I255
I255
tp4578
Rp4579
ag1
(I255
I255
I255
I255
tp4580
Rp4581
ag1
(I255
I255
I255
I255
tp4582
Rp4583
ag1
(I255
I255
I255
I255
tp4584
Rp4585
ag1
(I255
I255
I255
I255
tp4586
Rp4587
ag1
(I255
I255
I255
I255
tp4588
Rp4589
ag1
(I255
I255
I255
I255
tp4590
Rp4591
ag1
(I255
I255
I255
I255
tp4592
Rp4593
ag1
(I255
I255
I255
I255
tp4594
Rp4595
ag1
(I255
I255
I255
I255
tp4596
Rp4597
ag1
(I255
I255
I255
I255
tp4598
Rp4599
ag1
(I255
I255
I255
I255
tp4600
Rp4601
ag1
(I255
I255
I255
I255
tp4602
Rp4603
ag1
(I255
I255
I255
I255
tp4604
Rp4605
ag1
(I255
I255
I255
I255
tp4606
Rp4607
ag1
(I255
I255
I255
I255
tp4608
Rp4609
ag1
(I255
I255
I255
I255
tp4610
Rp4611
ag1
(I255
I255
I255
I255
tp4612
Rp4613
ag1
(I255
I255
I255
I255
tp4614
Rp4615
ag1
(I255
I255
I255
I255
tp4616
Rp4617
ag1
(I255
I255
I255
I255
tp4618
Rp4619
ag1
(I255
I255
I255
I255
tp4620
Rp4621
ag1
(I255
I255
I255
I255
tp4622
Rp4623
ag1
(I255
I255
I255
I255
tp4624
Rp4625
ag1
(I255
I255
I255
I255
tp4626
Rp4627
ag1
(I255
I255
I255
I255
tp4628
Rp4629
ag1
(I255
I255
I255
I255
tp4630
Rp4631
ag1
(I255
I255
I255
I255
tp4632
Rp4633
ag1
(I255
I255
I255
I255
tp4634
Rp4635
ag1
(I255
I255
I255
I255
tp4636
Rp4637
ag1
(I255
I255
I255
I255
tp4638
Rp4639
ag1
(I255
I255
I255
I255
tp4640
Rp4641
ag1
(I255
I255
I255
I255
tp4642
Rp4643
ag1
(I255
I255
I255
I255
tp4644
Rp4645
ag1
(I255
I255
I255
I255
tp4646
Rp4647
ag1
(I255
I255
I255
I255
tp4648
Rp4649
ag1
(I255
I255
I255
I255
tp4650
Rp4651
ag1
(I255
I255
I255
I255
tp4652
Rp4653
ag1
(I255
I255
I255
I255
tp4654
Rp4655
ag1
(I255
I255
I255
I255
tp4656
Rp4657
ag1
(I255
I255
I255
I255
tp4658
Rp4659
ag1
(I255
I255
I255
I255
tp4660
Rp4661
ag1
(I255
I255
I255
I255
tp4662
Rp4663
ag1
(I255
I255
I255
I255
tp4664
Rp4665
ag1
(I255
I255
I255
I255
tp4666
Rp4667
ag1
(I255
I255
I255
I255
tp4668
Rp4669
ag1
(I255
I255
I255
I255
tp4670
Rp4671
ag1
(I255
I255
I255
I255
tp4672
Rp4673
ag1
(I255
I255
I255
I255
tp4674
Rp4675
ag1
(I255
I255
I255
I255
tp4676
Rp4677
ag1
(I255
I255
I255
I255
tp4678
Rp4679
ag1
(I255
I255
I255
I255
tp4680
Rp4681
ag1
(I255
I255
I255
I255
tp4682
Rp4683
ag1
(I255
I255
I255
I255
tp4684
Rp4685
ag1
(I255
I255
I255
I255
tp4686
Rp4687
ag1
(I255
I255
I255
I255
tp4688
Rp4689
ag1
(I255
I255
I255
I255
tp4690
Rp4691
ag1
(I255
I255
I255
I255
tp4692
Rp4693
ag1
(I255
I255
I255
I255
tp4694
Rp4695
ag1
(I255
I255
I255
I255
tp4696
Rp4697
ag1
(I255
I255
I255
I255
tp4698
Rp4699
ag1
(I255
I255
I255
I255
tp4700
Rp4701
ag1
(I255
I255
I255
I255
tp4702
Rp4703
ag1
(I255
I255
I255
I255
tp4704
Rp4705
ag1
(I255
I255
I255
I255
tp4706
Rp4707
ag1
(I255
I255
I255
I255
tp4708
Rp4709
ag1
(I255
I255
I255
I255
tp4710
Rp4711
ag1
(I255
I255
I255
I255
tp4712
Rp4713
ag1
(I255
I255
I255
I255
tp4714
Rp4715
ag1
(I255
I255
I255
I255
tp4716
Rp4717
ag1
(I255
I255
I255
I255
tp4718
Rp4719
ag1
(I255
I255
I255
I255
tp4720
Rp4721
ag1
(I255
I255
I255
I255
tp4722
Rp4723
ag1
(I255
I255
I255
I255
tp4724
Rp4725
ag1
(I255
I255
I255
I255
tp4726
Rp4727
ag1
(I255
I255
I255
I255
tp4728
Rp4729
ag1
(I255
I255
I255
I255
tp4730
Rp4731
ag1
(I255
I255
I255
I255
tp4732
Rp4733
ag1
(I255
I255
I255
I255
tp4734
Rp4735
ag1
(I255
I255
I255
I255
tp4736
Rp4737
ag1
(I255
I255
I255
I255
tp4738
Rp4739
ag1
(I255
I255
I255
I255
tp4740
Rp4741
ag1
(I255
I255
I255
I255
tp4742
Rp4743
ag1
(I255
I255
I255
I255
tp4744
Rp4745
ag1
(I255
I255
I255
I255
tp4746
Rp4747
ag1
(I255
I255
I255
I255
tp4748
Rp4749
ag1
(I255
I255
I255
I255
tp4750
Rp4751
ag1
(I255
I255
I255
I255
tp4752
Rp4753
ag1
(I255
I255
I255
I255
tp4754
Rp4755
ag1
(I255
I255
I255
I255
tp4756
Rp4757
ag1
(I255
I255
I255
I255
tp4758
Rp4759
ag1
(I255
I255
I255
I255
tp4760
Rp4761
ag1
(I255
I255
I255
I255
tp4762
Rp4763
ag1
(I255
I255
I255
I255
tp4764
Rp4765
ag1
(I255
I255
I255
I255
tp4766
Rp4767
ag1
(I255
I255
I255
I255
tp4768
Rp4769
ag1
(I255
I255
I255
I255
tp4770
Rp4771
ag1
(I255
I255
I255
I255
tp4772
Rp4773
ag1
(I255
I255
I255
I255
tp4774
Rp4775
ag1
(I255
I255
I255
I255
tp4776
Rp4777
ag1
(I255
I255
I255
I255
tp4778
Rp4779
ag1
(I255
I255
I255
I255
tp4780
Rp4781
ag1
(I255
I255
I255
I255
tp4782
Rp4783
ag1
(I255
I255
I255
I255
tp4784
Rp4785
ag1
(I255
I255
I255
I255
tp4786
Rp4787
ag1
(I255
I255
I255
I255
tp4788
Rp4789
ag1
(I255
I255
I255
I255
tp4790
Rp4791
ag1
(I255
I255
I255
I255
tp4792
Rp4793
ag1
(I255
I255
I255
I255
tp4794
Rp4795
ag1
(I255
I255
I255
I255
tp4796
Rp4797
ag1
(I255
I255
I255
I255
tp4798
Rp4799
ag1
(I255
I255
I255
I255
tp4800
Rp4801
ag1
(I255
I255
I255
I255
tp4802
Rp4803
ag1
(I255
I255
I255
I255
tp4804
Rp4805
ag1
(I255
I255
I255
I255
tp4806
Rp4807
ag1
(I255
I255
I255
I255
tp4808
Rp4809
ag1
(I255
I255
I255
I255
tp4810
Rp4811
ag1
(I255
I255
I255
I255
tp4812
Rp4813
ag1
(I255
I255
I255
I255
tp4814
Rp4815
ag1
(I255
I255
I255
I255
tp4816
Rp4817
ag1
(I255
I255
I255
I255
tp4818
Rp4819
ag1
(I255
I255
I255
I255
tp4820
Rp4821
ag1
(I255
I255
I255
I255
tp4822
Rp4823
ag1
(I255
I255
I255
I255
tp4824
Rp4825
ag1
(I255
I255
I255
I255
tp4826
Rp4827
ag1
(I255
I255
I255
I255
tp4828
Rp4829
ag1
(I255
I255
I255
I255
tp4830
Rp4831
ag1
(I255
I255
I255
I255
tp4832
Rp4833
ag1
(I255
I255
I255
I255
tp4834
Rp4835
ag1
(I255
I255
I255
I255
tp4836
Rp4837
ag1
(I255
I255
I255
I255
tp4838
Rp4839
ag1
(I255
I255
I255
I255
tp4840
Rp4841
ag1
(I255
I255
I255
I255
tp4842
Rp4843
ag1
(I255
I255
I255
I255
tp4844
Rp4845
ag1
(I255
I255
I255
I255
tp4846
Rp4847
ag1
(I255
I255
I255
I255
tp4848
Rp4849
ag1
(I255
I255
I255
I255
tp4850
Rp4851
ag1
(I255
I255
I255
I255
tp4852
Rp4853
ag1
(I255
I255
I255
I255
tp4854
Rp4855
ag1
(I255
I255
I255
I255
tp4856
Rp4857
ag1
(I255
I255
I255
I255
tp4858
Rp4859
ag1
(I255
I255
I255
I255
tp4860
Rp4861
ag1
(I255
I255
I255
I255
tp4862
Rp4863
ag1
(I255
I255
I255
I255
tp4864
Rp4865
ag1
(I255
I255
I255
I255
tp4866
Rp4867
ag1
(I255
I255
I255
I255
tp4868
Rp4869
ag1
(I255
I255
I255
I255
tp4870
Rp4871
ag1
(I255
I255
I255
I255
tp4872
Rp4873
ag1
(I255
I255
I255
I255
tp4874
Rp4875
ag1
(I255
I255
I255
I255
tp4876
Rp4877
ag1
(I255
I255
I255
I255
tp4878
Rp4879
ag1
(I255
I255
I255
I255
tp4880
Rp4881
ag1
(I255
I255
I255
I255
tp4882
Rp4883
ag1
(I255
I255
I255
I255
tp4884
Rp4885
ag1
(I255
I255
I255
I255
tp4886
Rp4887
ag1
(I255
I255
I255
I255
tp4888
Rp4889
ag1
(I255
I255
I255
I255
tp4890
Rp4891
ag1
(I255
I255
I255
I255
tp4892
Rp4893
ag1
(I255
I255
I255
I255
tp4894
Rp4895
ag1
(I255
I255
I255
I255
tp4896
Rp4897
ag1
(I255
I255
I255
I255
tp4898
Rp4899
ag1
(I255
I255
I255
I255
tp4900
Rp4901
ag1
(I255
I255
I255
I255
tp4902
Rp4903
ag1
(I255
I255
I255
I255
tp4904
Rp4905
ag1
(I255
I255
I255
I255
tp4906
Rp4907
ag1
(I255
I255
I255
I255
tp4908
Rp4909
ag1
(I255
I255
I255
I255
tp4910
Rp4911
ag1
(I255
I255
I255
I255
tp4912
Rp4913
ag1
(I255
I255
I255
I255
tp4914
Rp4915
ag1
(I255
I255
I255
I255
tp4916
Rp4917
ag1
(I255
I255
I255
I255
tp4918
Rp4919
ag1
(I255
I255
I255
I255
tp4920
Rp4921
ag1
(I255
I255
I255
I255
tp4922
Rp4923
ag1
(I255
I255
I255
I255
tp4924
Rp4925
ag1
(I255
I255
I255
I255
tp4926
Rp4927
ag1
(I255
I255
I255
I255
tp4928
Rp4929
ag1
(I255
I255
I255
I255
tp4930
Rp4931
ag1
(I255
I255
I255
I255
tp4932
Rp4933
ag1
(I255
I255
I255
I255
tp4934
Rp4935
ag1
(I255
I255
I255
I255
tp4936
Rp4937
ag1
(I255
I255
I255
I255
tp4938
Rp4939
ag1
(I255
I255
I255
I255
tp4940
Rp4941
ag1
(I255
I255
I255
I255
tp4942
Rp4943
ag1
(I255
I255
I255
I255
tp4944
Rp4945
ag1
(I255
I255
I255
I255
tp4946
Rp4947
ag1
(I255
I255
I255
I255
tp4948
Rp4949
ag1
(I255
I255
I255
I255
tp4950
Rp4951
ag1
(I255
I255
I255
I255
tp4952
Rp4953
ag1
(I255
I255
I255
I255
tp4954
Rp4955
ag1
(I255
I255
I255
I255
tp4956
Rp4957
ag1
(I255
I255
I255
I255
tp4958
Rp4959
ag1
(I255
I255
I255
I255
tp4960
Rp4961
ag1
(I255
I255
I255
I255
tp4962
Rp4963
ag1
(I255
I255
I255
I255
tp4964
Rp4965
ag1
(I255
I255
I255
I255
tp4966
Rp4967
ag1
(I255
I255
I255
I255
tp4968
Rp4969
ag1
(I255
I255
I255
I255
tp4970
Rp4971
ag1
(I255
I255
I255
I255
tp4972
Rp4973
ag1
(I255
I255
I255
I255
tp4974
Rp4975
ag1
(I255
I255
I255
I255
tp4976
Rp4977
ag1
(I255
I255
I255
I255
tp4978
Rp4979
ag1
(I255
I255
I255
I255
tp4980
Rp4981
ag1
(I255
I255
I255
I255
tp4982
Rp4983
ag1
(I255
I255
I255
I255
tp4984
Rp4985
ag1
(I255
I255
I255
I255
tp4986
Rp4987
ag1
(I255
I255
I255
I255
tp4988
Rp4989
ag1
(I255
I255
I255
I255
tp4990
Rp4991
ag1
(I255
I255
I255
I255
tp4992
Rp4993
ag1
(I255
I255
I255
I255
tp4994
Rp4995
ag1
(I255
I255
I255
I255
tp4996
Rp4997
ag1
(I255
I255
I255
I255
tp4998
Rp4999
ag1
(I255
I255
I255
I255
tp5000
Rp5001
ag1
(I255
I255
I255
I255
tp5002
Rp5003
ag1
(I255
I255
I255
I255
tp5004
Rp5005
ag1
(I255
I255
I255
I255
tp5006
Rp5007
ag1
(I255
I255
I255
I255
tp5008
Rp5009
ag1
(I255
I255
I255
I255
tp5010
Rp5011
ag1
(I255
I255
I255
I255
tp5012
Rp5013
ag1
(I255
I255
I255
I255
tp5014
Rp5015
ag1
(I255
I255
I255
I255
tp5016
Rp5017
ag1
(I255
I255
I255
I255
tp5018
Rp5019
ag1
(I255
I255
I255
I255
tp5020
Rp5021
ag1
(I255
I255
I255
I255
tp5022
Rp5023
ag1
(I255
I255
I255
I255
tp5024
Rp5025
ag1
(I255
I255
I255
I255
tp5026
Rp5027
ag1
(I255
I255
I255
I255
tp5028
Rp5029
ag1
(I255
I255
I255
I255
tp5030
Rp5031
ag1
(I255
I255
I255
I255
tp5032
Rp5033
ag1
(I255
I255
I255
I255
tp5034
Rp5035
ag1
(I255
I255
I255
I255
tp5036
Rp5037
ag1
(I255
I255
I255
I255
tp5038
Rp5039
ag1
(I255
I255
I255
I255
tp5040
Rp5041
ag1
(I255
I255
I255
I255
tp5042
Rp5043
ag1
(I255
I255
I255
I255
tp5044
Rp5045
ag1
(I255
I255
I255
I255
tp5046
Rp5047
ag1
(I255
I255
I255
I255
tp5048
Rp5049
ag1
(I255
I255
I255
I255
tp5050
Rp5051
ag1
(I255
I255
I255
I255
tp5052
Rp5053
ag1
(I255
I255
I255
I255
tp5054
Rp5055
ag1
(I255
I255
I255
I255
tp5056
Rp5057
ag1
(I255
I255
I255
I255
tp5058
Rp5059
ag1
(I255
I255
I255
I255
tp5060
Rp5061
ag1
(I255
I255
I255
I255
tp5062
Rp5063
ag1
(I255
I255
I255
I255
tp5064
Rp5065
ag1
(I255
I255
I255
I255
tp5066
Rp5067
ag1
(I255
I255
I255
I255
tp5068
Rp5069
ag1
(I255
I255
I255
I255
tp5070
Rp5071
ag1
(I255
I255
I255
I255
tp5072
Rp5073
ag1
(I255
I255
I255
I255
tp5074
Rp5075
ag1
(I255
I255
I255
I255
tp5076
Rp5077
ag1
(I255
I255
I255
I255
tp5078
Rp5079
ag1
(I255
I255
I255
I255
tp5080
Rp5081
ag1
(I255
I255
I255
I255
tp5082
Rp5083
ag1
(I255
I255
I255
I255
tp5084
Rp5085
ag1
(I255
I255
I255
I255
tp5086
Rp5087
ag1
(I255
I255
I255
I255
tp5088
Rp5089
ag1
(I255
I255
I255
I255
tp5090
Rp5091
ag1
(I255
I255
I255
I255
tp5092
Rp5093
ag1
(I255
I255
I255
I255
tp5094
Rp5095
ag1
(I255
I255
I255
I255
tp5096
Rp5097
ag1
(I255
I255
I255
I255
tp5098
Rp5099
ag1
(I255
I255
I255
I255
tp5100
Rp5101
ag1
(I255
I255
I255
I255
tp5102
Rp5103
ag1
(I255
I255
I255
I255
tp5104
Rp5105
ag1
(I255
I255
I255
I255
tp5106
Rp5107
ag1
(I255
I255
I255
I255
tp5108
Rp5109
ag1
(I255
I255
I255
I255
tp5110
Rp5111
ag1
(I255
I255
I255
I255
tp5112
Rp5113
ag1
(I255
I255
I255
I255
tp5114
Rp5115
ag1
(I255
I255
I255
I255
tp5116
Rp5117
ag1
(I255
I255
I255
I255
tp5118
Rp5119
ag1
(I255
I255
I255
I255
tp5120
Rp5121
ag1
(I255
I255
I255
I255
tp5122
Rp5123
ag1
(I255
I255
I255
I255
tp5124
Rp5125
ag1
(I255
I255
I255
I255
tp5126
Rp5127
ag1
(I255
I255
I255
I255
tp5128
Rp5129
ag1
(I255
I255
I255
I255
tp5130
Rp5131
ag1
(I255
I255
I255
I255
tp5132
Rp5133
ag1
(I255
I255
I255
I255
tp5134
Rp5135
ag1
(I255
I255
I255
I255
tp5136
Rp5137
ag1
(I255
I255
I255
I255
tp5138
Rp5139
ag1
(I255
I255
I255
I255
tp5140
Rp5141
ag1
(I255
I255
I255
I255
tp5142
Rp5143
ag1
(I255
I255
I255
I255
tp5144
Rp5145
ag1
(I255
I255
I255
I255
tp5146
Rp5147
ag1
(I255
I255
I255
I255
tp5148
Rp5149
ag1
(I255
I255
I255
I255
tp5150
Rp5151
ag1
(I255
I255
I255
I255
tp5152
Rp5153
ag1
(I255
I255
I255
I255
tp5154
Rp5155
ag1
(I255
I255
I255
I255
tp5156
Rp5157
ag1
(I255
I255
I255
I255
tp5158
Rp5159
ag1
(I255
I255
I255
I255
tp5160
Rp5161
ag1
(I255
I255
I255
I255
tp5162
Rp5163
ag1
(I255
I255
I255
I255
tp5164
Rp5165
ag1
(I255
I255
I255
I255
tp5166
Rp5167
ag1
(I255
I255
I255
I255
tp5168
Rp5169
ag1
(I255
I255
I255
I255
tp5170
Rp5171
ag1
(I255
I255
I255
I255
tp5172
Rp5173
ag1
(I255
I255
I255
I255
tp5174
Rp5175
ag1
(I255
I255
I255
I255
tp5176
Rp5177
ag1
(I255
I255
I255
I255
tp5178
Rp5179
ag1
(I255
I255
I255
I255
tp5180
Rp5181
ag1
(I255
I255
I255
I255
tp5182
Rp5183
ag1
(I255
I255
I255
I255
tp5184
Rp5185
ag1
(I255
I255
I255
I255
tp5186
Rp5187
ag1
(I255
I255
I255
I255
tp5188
Rp5189
ag1
(I255
I255
I255
I255
tp5190
Rp5191
ag1
(I255
I255
I255
I255
tp5192
Rp5193
ag1
(I255
I255
I255
I255
tp5194
Rp5195
ag1
(I255
I255
I255
I255
tp5196
Rp5197
ag1
(I255
I255
I255
I255
tp5198
Rp5199
ag1
(I255
I255
I255
I255
tp5200
Rp5201
ag1
(I255
I255
I255
I255
tp5202
Rp5203
ag1
(I255
I255
I255
I255
tp5204
Rp5205
ag1
(I255
I255
I255
I255
tp5206
Rp5207
ag1
(I255
I255
I255
I255
tp5208
Rp5209
ag1
(I255
I255
I255
I255
tp5210
Rp5211
ag1
(I255
I255
I255
I255
tp5212
Rp5213
ag1
(I255
I255
I255
I255
tp5214
Rp5215
ag1
(I255
I255
I255
I255
tp5216
Rp5217
ag1
(I255
I255
I255
I255
tp5218
Rp5219
ag1
(I255
I255
I255
I255
tp5220
Rp5221
ag1
(I255
I255
I255
I255
tp5222
Rp5223
ag1
(I255
I255
I255
I255
tp5224
Rp5225
ag1
(I255
I255
I255
I255
tp5226
Rp5227
ag1
(I255
I255
I255
I255
tp5228
Rp5229
ag1
(I255
I255
I255
I255
tp5230
Rp5231
ag1
(I255
I255
I255
I255
tp5232
Rp5233
ag1
(I255
I255
I255
I255
tp5234
Rp5235
ag1
(I255
I255
I255
I255
tp5236
Rp5237
ag1
(I255
I255
I255
I255
tp5238
Rp5239
ag1
(I255
I255
I255
I255
tp5240
Rp5241
ag1
(I255
I255
I255
I255
tp5242
Rp5243
ag1
(I255
I255
I255
I255
tp5244
Rp5245
ag1
(I255
I255
I255
I255
tp5246
Rp5247
ag1
(I255
I255
I255
I255
tp5248
Rp5249
ag1
(I255
I255
I255
I255
tp5250
Rp5251
ag1
(I255
I255
I255
I255
tp5252
Rp5253
ag1
(I255
I255
I255
I255
tp5254
Rp5255
ag1
(I255
I255
I255
I255
tp5256
Rp5257
ag1
(I255
I255
I255
I255
tp5258
Rp5259
ag1
(I255
I255
I255
I255
tp5260
Rp5261
ag1
(I255
I255
I255
I255
tp5262
Rp5263
ag1
(I255
I255
I255
I255
tp5264
Rp5265
ag1
(I255
I255
I255
I255
tp5266
Rp5267
ag1
(I255
I255
I255
I255
tp5268
Rp5269
ag1
(I255
I255
I255
I255
tp5270
Rp5271
ag1
(I255
I255
I255
I255
tp5272
Rp5273
ag1
(I255
I255
I255
I255
tp5274
Rp5275
ag1
(I255
I255
I255
I255
tp5276
Rp5277
ag1
(I255
I255
I255
I255
tp5278
Rp5279
ag1
(I255
I255
I255
I255
tp5280
Rp5281
ag1
(I255
I255
I255
I255
tp5282
Rp5283
ag1
(I255
I255
I255
I255
tp5284
Rp5285
ag1
(I255
I255
I255
I255
tp5286
Rp5287
ag1
(I255
I255
I255
I255
tp5288
Rp5289
ag1
(I255
I255
I255
I255
tp5290
Rp5291
ag1
(I255
I255
I255
I255
tp5292
Rp5293
ag1
(I255
I255
I255
I255
tp5294
Rp5295
ag1
(I255
I255
I255
I255
tp5296
Rp5297
ag1
(I255
I255
I255
I255
tp5298
Rp5299
ag1
(I255
I255
I255
I255
tp5300
Rp5301
ag1
(I255
I255
I255
I255
tp5302
Rp5303
ag1
(I255
I255
I255
I255
tp5304
Rp5305
ag1
(I255
I255
I255
I255
tp5306
Rp5307
ag1
(I255
I255
I255
I255
tp5308
Rp5309
ag1
(I255
I255
I255
I255
tp5310
Rp5311
ag1
(I255
I255
I255
I255
tp5312
Rp5313
ag1
(I255
I255
I255
I255
tp5314
Rp5315
ag1
(I255
I255
I255
I255
tp5316
Rp5317
ag1
(I255
I255
I255
I255
tp5318
Rp5319
ag1
(I255
I255
I255
I255
tp5320
Rp5321
ag1
(I255
I255
I255
I255
tp5322
Rp5323
ag1
(I255
I255
I255
I255
tp5324
Rp5325
ag1
(I255
I255
I255
I255
tp5326
Rp5327
ag1
(I255
I255
I255
I255
tp5328
Rp5329
ag1
(I255
I255
I255
I255
tp5330
Rp5331
ag1
(I255
I255
I255
I255
tp5332
Rp5333
ag1
(I255
I255
I255
I255
tp5334
Rp5335
ag1
(I255
I255
I255
I255
tp5336
Rp5337
ag1
(I255
I255
I255
I255
tp5338
Rp5339
ag1
(I255
I255
I255
I255
tp5340
Rp5341
ag1
(I255
I255
I255
I255
tp5342
Rp5343
ag1
(I255
I255
I255
I255
tp5344
Rp5345
ag1
(I255
I255
I255
I255
tp5346
Rp5347
ag1
(I255
I255
I255
I255
tp5348
Rp5349
ag1
(I255
I255
I255
I255
tp5350
Rp5351
ag1
(I255
I255
I255
I255
tp5352
Rp5353
ag1
(I255
I255
I255
I255
tp5354
Rp5355
ag1
(I255
I255
I255
I255
tp5356
Rp5357
ag1
(I255
I255
I255
I255
tp5358
Rp5359
ag1
(I255
I255
I255
I255
tp5360
Rp5361
ag1
(I255
I255
I255
I255
tp5362
Rp5363
ag1
(I255
I255
I255
I255
tp5364
Rp5365
ag1
(I255
I255
I255
I255
tp5366
Rp5367
ag1
(I255
I255
I255
I255
tp5368
Rp5369
ag1
(I255
I255
I255
I255
tp5370
Rp5371
ag1
(I255
I255
I255
I255
tp5372
Rp5373
ag1
(I255
I255
I255
I255
tp5374
Rp5375
ag1
(I255
I255
I255
I255
tp5376
Rp5377
ag1
(I255
I255
I255
I255
tp5378
Rp5379
ag1
(I255
I255
I255
I255
tp5380
Rp5381
ag1
(I255
I255
I255
I255
tp5382
Rp5383
ag1
(I255
I255
I255
I255
tp5384
Rp5385
ag1
(I255
I255
I255
I255
tp5386
Rp5387
ag1
(I255
I255
I255
I255
tp5388
Rp5389
ag1
(I255
I255
I255
I255
tp5390
Rp5391
ag1
(I255
I255
I255
I255
tp5392
Rp5393
ag1
(I255
I255
I255
I255
tp5394
Rp5395
ag1
(I255
I255
I255
I255
tp5396
Rp5397
ag1
(I255
I255
I255
I255
tp5398
Rp5399
ag1
(I255
I255
I255
I255
tp5400
Rp5401
ag1
(I255
I255
I255
I255
tp5402
Rp5403
ag1
(I255
I255
I255
I255
tp5404
Rp5405
ag1
(I255
I255
I255
I255
tp5406
Rp5407
ag1
(I255
I255
I255
I255
tp5408
Rp5409
ag1
(I255
I255
I255
I255
tp5410
Rp5411
ag1
(I255
I255
I255
I255
tp5412
Rp5413
ag1
(I255
I255
I255
I255
tp5414
Rp5415
ag1
(I255
I255
I255
I255
tp5416
Rp5417
ag1
(I255
I255
I255
I255
tp5418
Rp5419
ag1
(I255
I255
I255
I255
tp5420
Rp5421
ag1
(I255
I255
I255
I255
tp5422
Rp5423
ag1
(I255
I255
I255
I255
tp5424
Rp5425
ag1
(I255
I255
I255
I255
tp5426
Rp5427
ag1
(I255
I255
I255
I255
tp5428
Rp5429
ag1
(I255
I255
I255
I255
tp5430
Rp5431
ag1
(I255
I255
I255
I255
tp5432
Rp5433
ag1
(I255
I255
I255
I255
tp5434
Rp5435
ag1
(I255
I255
I255
I255
tp5436
Rp5437
ag1
(I255
I255
I255
I255
tp5438
Rp5439
ag1
(I255
I255
I255
I255
tp5440
Rp5441
ag1
(I255
I255
I255
I255
tp5442
Rp5443
ag1
(I255
I255
I255
I255
tp5444
Rp5445
ag1
(I255
I255
I255
I255
tp5446
Rp5447
ag1
(I255
I255
I255
I255
tp5448
Rp5449
ag1
(I255
I255
I255
I255
tp5450
Rp5451
ag1
(I255
I255
I255
I255
tp5452
Rp5453
ag1
(I255
I255
I255
I255
tp5454
Rp5455
ag1
(I255
I255
I255
I255
tp5456
Rp5457
ag1
(I255
I255
I255
I255
tp5458
Rp5459
ag1
(I255
I255
I255
I255
tp5460
Rp5461
ag1
(I255
I255
I255
I255
tp5462
Rp5463
ag1
(I255
I255
I255
I255
tp5464
Rp5465
ag1
(I255
I255
I255
I255
tp5466
Rp5467
ag1
(I255
I255
I255
I255
tp5468
Rp5469
ag1
(I255
I255
I255
I255
tp5470
Rp5471
ag1
(I255
I255
I255
I255
tp5472
Rp5473
ag1
(I255
I255
I255
I255
tp5474
Rp5475
ag1
(I255
I255
I255
I255
tp5476
Rp5477
ag1
(I255
I255
I255
I255
tp5478
Rp5479
ag1
(I255
I255
I255
I255
tp5480
Rp5481
ag1
(I255
I255
I255
I255
tp5482
Rp5483
ag1
(I255
I255
I255
I255
tp5484
Rp5485
ag1
(I255
I255
I255
I255
tp5486
Rp5487
ag1
(I255
I255
I255
I255
tp5488
Rp5489
ag1
(I255
I255
I255
I255
tp5490
Rp5491
ag1
(I255
I255
I255
I255
tp5492
Rp5493
ag1
(I255
I255
I255
I255
tp5494
Rp5495
ag1
(I255
I255
I255
I255
tp5496
Rp5497
ag1
(I255
I255
I255
I255
tp5498
Rp5499
ag1
(I255
I255
I255
I255
tp5500
Rp5501
ag1
(I255
I255
I255
I255
tp5502
Rp5503
ag1
(I255
I255
I255
I255
tp5504
Rp5505
ag1
(I255
I255
I255
I255
tp5506
Rp5507
ag1
(I255
I255
I255
I255
tp5508
Rp5509
ag1
(I255
I255
I255
I255
tp5510
Rp5511
ag1
(I255
I255
I255
I255
tp5512
Rp5513
ag1
(I255
I255
I255
I255
tp5514
Rp5515
ag1
(I255
I255
I255
I255
tp5516
Rp5517
ag1
(I255
I255
I255
I255
tp5518
Rp5519
ag1
(I255
I255
I255
I255
tp5520
Rp5521
ag1
(I255
I255
I255
I255
tp5522
Rp5523
ag1
(I255
I255
I255
I255
tp5524
Rp5525
ag1
(I255
I255
I255
I255
tp5526
Rp5527
ag1
(I255
I255
I255
I255
tp5528
Rp5529
ag1
(I255
I255
I255
I255
tp5530
Rp5531
ag1
(I255
I255
I255
I255
tp5532
Rp5533
ag1
(I255
I255
I255
I255
tp5534
Rp5535
ag1
(I255
I255
I255
I255
tp5536
Rp5537
ag1
(I255
I255
I255
I255
tp5538
Rp5539
ag1
(I255
I255
I255
I255
tp5540
Rp5541
ag1
(I255
I255
I255
I255
tp5542
Rp5543
ag1
(I255
I255
I255
I255
tp5544
Rp5545
ag1
(I255
I255
I255
I255
tp5546
Rp5547
ag1
(I255
I255
I255
I255
tp5548
Rp5549
ag1
(I255
I255
I255
I255
tp5550
Rp5551
ag1
(I255
I255
I255
I255
tp5552
Rp5553
ag1
(I255
I255
I255
I255
tp5554
Rp5555
ag1
(I255
I255
I255
I255
tp5556
Rp5557
ag1
(I255
I255
I255
I255
tp5558
Rp5559
ag1
(I255
I255
I255
I255
tp5560
Rp5561
ag1
(I255
I255
I255
I255
tp5562
Rp5563
ag1
(I255
I255
I255
I255
tp5564
Rp5565
ag1
(I255
I255
I255
I255
tp5566
Rp5567
ag1
(I255
I255
I255
I255
tp5568
Rp5569
ag1
(I255
I255
I255
I255
tp5570
Rp5571
ag1
(I255
I255
I255
I255
tp5572
Rp5573
ag1
(I255
I255
I255
I255
tp5574
Rp5575
ag1
(I255
I255
I255
I255
tp5576
Rp5577
ag1
(I255
I255
I255
I255
tp5578
Rp5579
ag1
(I255
I255
I255
I255
tp5580
Rp5581
ag1
(I255
I255
I255
I255
tp5582
Rp5583
ag1
(I255
I255
I255
I255
tp5584
Rp5585
ag1
(I255
I255
I255
I255
tp5586
Rp5587
ag1
(I255
I255
I255
I255
tp5588
Rp5589
ag1
(I255
I255
I255
I255
tp5590
Rp5591
ag1
(I255
I255
I255
I255
tp5592
Rp5593
ag1
(I255
I255
I255
I255
tp5594
Rp5595
ag1
(I255
I255
I255
I255
tp5596
Rp5597
ag1
(I255
I255
I255
I255
tp5598
Rp5599
ag1
(I255
I255
I255
I255
tp5600
Rp5601
ag1
(I255
I255
I255
I255
tp5602
Rp5603
ag1
(I255
I255
I255
I255
tp5604
Rp5605
ag1
(I255
I255
I255
I255
tp5606
Rp5607
ag1
(I255
I255
I255
I255
tp5608
Rp5609
ag1
(I255
I255
I255
I255
tp5610
Rp5611
ag1
(I255
I255
I255
I255
tp5612
Rp5613
ag1
(I255
I255
I255
I255
tp5614
Rp5615
ag1
(I255
I255
I255
I255
tp5616
Rp5617
ag1
(I255
I255
I255
I255
tp5618
Rp5619
ag1
(I255
I255
I255
I255
tp5620
Rp5621
ag1
(I255
I255
I255
I255
tp5622
Rp5623
ag1
(I255
I255
I255
I255
tp5624
Rp5625
ag1
(I255
I255
I255
I255
tp5626
Rp5627
ag1
(I255
I255
I255
I255
tp5628
Rp5629
ag1
(I255
I255
I255
I255
tp5630
Rp5631
ag1
(I255
I255
I255
I255
tp5632
Rp5633
ag1
(I255
I255
I255
I255
tp5634
Rp5635
ag1
(I255
I255
I255
I255
tp5636
Rp5637
ag1
(I255
I255
I255
I255
tp5638
Rp5639
ag1
(I255
I255
I255
I255
tp5640
Rp5641
ag1
(I255
I255
I255
I255
tp5642
Rp5643
ag1
(I255
I255
I255
I255
tp5644
Rp5645
ag1
(I255
I255
I255
I255
tp5646
Rp5647
ag1
(I255
I255
I255
I255
tp5648
Rp5649
ag1
(I255
I255
I255
I255
tp5650
Rp5651
ag1
(I255
I255
I255
I255
tp5652
Rp5653
ag1
(I255
I255
I255
I255
tp5654
Rp5655
ag1
(I255
I255
I255
I255
tp5656
Rp5657
ag1
(I255
I255
I255
I255
tp5658
Rp5659
ag1
(I255
I255
I255
I255
tp5660
Rp5661
ag1
(I255
I255
I255
I255
tp5662
Rp5663
ag1
(I255
I255
I255
I255
tp5664
Rp5665
ag1
(I255
I255
I255
I255
tp5666
Rp5667
ag1
(I255
I255
I255
I255
tp5668
Rp5669
ag1
(I255
I255
I255
I255
tp5670
Rp5671
ag1
(I255
I255
I255
I255
tp5672
Rp5673
ag1
(I255
I255
I255
I255
tp5674
Rp5675
ag1
(I255
I255
I255
I255
tp5676
Rp5677
ag1
(I255
I255
I255
I255
tp5678
Rp5679
ag1
(I255
I255
I255
I255
tp5680
Rp5681
ag1
(I255
I255
I255
I255
tp5682
Rp5683
ag1
(I255
I255
I255
I255
tp5684
Rp5685
ag1
(I255
I255
I255
I255
tp5686
Rp5687
ag1
(I255
I255
I255
I255
tp5688
Rp5689
ag1
(I255
I255
I255
I255
tp5690
Rp5691
ag1
(I255
I255
I255
I255
tp5692
Rp5693
ag1
(I255
I255
I255
I255
tp5694
Rp5695
ag1
(I255
I255
I255
I255
tp5696
Rp5697
ag1
(I255
I255
I255
I255
tp5698
Rp5699
ag1
(I255
I255
I255
I255
tp5700
Rp5701
ag1
(I255
I255
I255
I255
tp5702
Rp5703
ag1
(I255
I255
I255
I255
tp5704
Rp5705
ag1
(I255
I255
I255
I255
tp5706
Rp5707
ag1
(I255
I255
I255
I255
tp5708
Rp5709
ag1
(I255
I255
I255
I255
tp5710
Rp5711
ag1
(I255
I255
I255
I255
tp5712
Rp5713
ag1
(I255
I255
I255
I255
tp5714
Rp5715
ag1
(I255
I255
I255
I255
tp5716
Rp5717
ag1
(I255
I255
I255
I255
tp5718
Rp5719
ag1
(I255
I255
I255
I255
tp5720
Rp5721
ag1
(I255
I255
I255
I255
tp5722
Rp5723
ag1
(I255
I255
I255
I255
tp5724
Rp5725
ag1
(I255
I255
I255
I255
tp5726
Rp5727
ag1
(I255
I255
I255
I255
tp5728
Rp5729
ag1
(I255
I255
I255
I255
tp5730
Rp5731
ag1
(I255
I255
I255
I255
tp5732
Rp5733
ag1
(I255
I255
I255
I255
tp5734
Rp5735
ag1
(I255
I255
I255
I255
tp5736
Rp5737
ag1
(I255
I255
I255
I255
tp5738
Rp5739
ag1
(I255
I255
I255
I255
tp5740
Rp5741
ag1
(I255
I255
I255
I255
tp5742
Rp5743
ag1
(I255
I255
I255
I255
tp5744
Rp5745
ag1
(I255
I255
I255
I255
tp5746
Rp5747
ag1
(I255
I255
I255
I255
tp5748
Rp5749
ag1
(I255
I255
I255
I255
tp5750
Rp5751
ag1
(I255
I255
I255
I255
tp5752
Rp5753
ag1
(I255
I255
I255
I255
tp5754
Rp5755
ag1
(I255
I255
I255
I255
tp5756
Rp5757
ag1
(I255
I255
I255
I255
tp5758
Rp5759
ag1
(I255
I255
I255
I255
tp5760
Rp5761
ag1
(I255
I255
I255
I255
tp5762
Rp5763
ag1
(I255
I255
I255
I255
tp5764
Rp5765
ag1
(I255
I255
I255
I255
tp5766
Rp5767
ag1
(I255
I255
I255
I255
tp5768
Rp5769
ag1
(I255
I255
I255
I255
tp5770
Rp5771
ag1
(I255
I255
I255
I255
tp5772
Rp5773
ag1
(I255
I255
I255
I255
tp5774
Rp5775
ag1
(I255
I255
I255
I255
tp5776
Rp5777
ag1
(I255
I255
I255
I255
tp5778
Rp5779
ag1
(I255
I255
I255
I255
tp5780
Rp5781
ag1
(I255
I255
I255
I255
tp5782
Rp5783
ag1
(I255
I255
I255
I255
tp5784
Rp5785
ag1
(I255
I255
I255
I255
tp5786
Rp5787
ag1
(I255
I255
I255
I255
tp5788
Rp5789
ag1
(I255
I255
I255
I255
tp5790
Rp5791
ag1
(I255
I255
I255
I255
tp5792
Rp5793
ag1
(I255
I255
I255
I255
tp5794
Rp5795
ag1
(I255
I255
I255
I255
tp5796
Rp5797
ag1
(I255
I255
I255
I255
tp5798
Rp5799
ag1
(I255
I255
I255
I255
tp5800
Rp5801
ag1
(I255
I255
I255
I255
tp5802
Rp5803
ag1
(I255
I255
I255
I255
tp5804
Rp5805
ag1
(I255
I255
I255
I255
tp5806
Rp5807
ag1
(I255
I255
I255
I255
tp5808
Rp5809
ag1
(I255
I255
I255
I255
tp5810
Rp5811
ag1
(I255
I255
I255
I255
tp5812
Rp5813
ag1
(I255
I255
I255
I255
tp5814
Rp5815
ag1
(I255
I255
I255
I255
tp5816
Rp5817
ag1
(I255
I255
I255
I255
tp5818
Rp5819
ag1
(I255
I255
I255
I255
tp5820
Rp5821
ag1
(I255
I255
I255
I255
tp5822
Rp5823
ag1
(I255
I255
I255
I255
tp5824
Rp5825
ag1
(I255
I255
I255
I255
tp5826
Rp5827
ag1
(I255
I255
I255
I255
tp5828
Rp5829
ag1
(I255
I255
I255
I255
tp5830
Rp5831
ag1
(I255
I255
I255
I255
tp5832
Rp5833
ag1
(I255
I255
I255
I255
tp5834
Rp5835
ag1
(I255
I255
I255
I255
tp5836
Rp5837
ag1
(I255
I255
I255
I255
tp5838
Rp5839
ag1
(I255
I255
I255
I255
tp5840
Rp5841
ag1
(I255
I255
I255
I255
tp5842
Rp5843
ag1
(I255
I255
I255
I255
tp5844
Rp5845
ag1
(I255
I255
I255
I255
tp5846
Rp5847
ag1
(I255
I255
I255
I255
tp5848
Rp5849
ag1
(I255
I255
I255
I255
tp5850
Rp5851
ag1
(I255
I255
I255
I255
tp5852
Rp5853
ag1
(I255
I255
I255
I255
tp5854
Rp5855
ag1
(I255
I255
I255
I255
tp5856
Rp5857
ag1
(I255
I255
I255
I255
tp5858
Rp5859
ag1
(I255
I255
I255
I255
tp5860
Rp5861
ag1
(I255
I255
I255
I255
tp5862
Rp5863
ag1
(I255
I255
I255
I255
tp5864
Rp5865
ag1
(I255
I255
I255
I255
tp5866
Rp5867
ag1
(I255
I255
I255
I255
tp5868
Rp5869
ag1
(I255
I255
I255
I255
tp5870
Rp5871
ag1
(I255
I255
I255
I255
tp5872
Rp5873
ag1
(I255
I255
I255
I255
tp5874
Rp5875
ag1
(I255
I255
I255
I255
tp5876
Rp5877
ag1
(I255
I255
I255
I255
tp5878
Rp5879
ag1
(I255
I255
I255
I255
tp5880
Rp5881
ag1
(I255
I255
I255
I255
tp5882
Rp5883
ag1
(I255
I255
I255
I255
tp5884
Rp5885
ag1
(I255
I255
I255
I255
tp5886
Rp5887
ag1
(I255
I255
I255
I255
tp5888
Rp5889
ag1
(I255
I255
I255
I255
tp5890
Rp5891
ag1
(I255
I255
I255
I255
tp5892
Rp5893
ag1
(I255
I255
I255
I255
tp5894
Rp5895
ag1
(I255
I255
I255
I255
tp5896
Rp5897
ag1
(I255
I255
I255
I255
tp5898
Rp5899
ag1
(I255
I255
I255
I255
tp5900
Rp5901
a.